

Microchip Technology PIC LITE Macro Assembler V1.45 build -152302408 
                                                                                               Tue Feb 23 08:01:34 2021

Microchip Technology Omniscient Code Generator v1.45 (Free mode) build 201711160504
     1                           	processor	16F887
     2                           	opt	pw 120
     3                           	opt	lm
     4                           	psect	strings,global,class=STRING,delta=2
     5                           	psect	cinit,global,class=CODE,merge=1,delta=2
     6                           	psect	bssCOMMON,global,class=COMMON,space=1,delta=1
     7                           	psect	bssBANK0,global,class=BANK0,space=1,delta=1
     8                           	psect	cstackCOMMON,global,class=COMMON,space=1,delta=1
     9                           	psect	cstackBANK0,global,class=BANK0,space=1,delta=1
    10                           	psect	maintext,global,class=CODE,split=1,delta=2
    11                           	psect	text1,local,class=CODE,merge=1,delta=2
    12                           	psect	text2,local,class=CODE,merge=1,delta=2
    13                           	psect	intentry,global,class=CODE,delta=2
    14                           	psect	text3,local,class=CODE,merge=1,delta=2
    15                           	psect	text4,local,class=CODE,merge=1,delta=2
    16                           	dabs	1,0x7E,2
    17  0000                     
    18                           ; Version 1.45
    19                           ; Generated 16/11/2017 GMT
    20                           ; 
    21                           ; Copyright © 2017, Microchip Technology Inc. and its subsidiaries ("Microchip")
    22                           ; All rights reserved.
    23                           ; 
    24                           ; This software is developed by Microchip Technology Inc. and its subsidiaries ("Microch
      +                          ip").
    25                           ; 
    26                           ; Redistribution and use in source and binary forms, with or without modification, are
    27                           ; permitted provided that the following conditions are met:
    28                           ; 
    29                           ;     1. Redistributions of source code must retain the above copyright notice, this lis
      +                          t of
    30                           ;        conditions and the following disclaimer.
    31                           ; 
    32                           ;     2. Redistributions in binary form must reproduce the above copyright notice, this 
      +                          list
    33                           ;        of conditions and the following disclaimer in the documentation and/or other
    34                           ;        materials provided with the distribution.
    35                           ; 
    36                           ;     3. Microchip's name may not be used to endorse or promote products derived from th
      +                          is
    37                           ;        software without specific prior written permission.
    38                           ; 
    39                           ; THIS SOFTWARE IS PROVIDED BY MICROCHIP "AS IS" AND ANY EXPRESS OR IMPLIED WARRANTIES,
    40                           ; INCLUDING, BUT NOT LIMITED TO, THE IMPLIED WARRANTIES OF MERCHANTABILITY AND FITNESS F
      +                          OR
    41                           ; PURPOSE ARE DISCLAIMED.  IN NO EVENT SHALL MICROCHIP BE LIABLE FOR ANY DIRECT, INDIREC
      +                          T,
    42                           ; INCIDENTAL, SPECIAL, EXEMPLARY, OR CONSEQUENTIAL DAMAGES (INCLUDING BUT NOT LIMITED TO
    43                           ; PROCUREMENT OF SUBSTITUTE GOODS OR SERVICES; LOSS OF USE, DATA OR PROFITS; OR BUSINESS
    44                           ; INTERRUPTION) HOWSOEVER CAUSED AND ON ANY THEORY OF LIABILITY, WHETHER IN CONTRACT, ST
      +                          RICT
    45                           ; LIABILITY, OR TORT (INCLUDING NEGLIGENCE OR OTHERWISE) ARISING IN ANY WAY OUT OF THE U
      +                          SE OF
    46                           ; THIS SOFTWARE, EVEN IF ADVISED OF THE POSSIBILITY OF SUCH DAMAGE.
    47                           ; 
    48                           ; 
    49                           ; Code-generator required, PIC16F887 Definitions
    50                           ; 
    51                           ; SFR Addresses
    52  0000                     	;# 
    53  0001                     	;# 
    54  0002                     	;# 
    55  0003                     	;# 
    56  0004                     	;# 
    57  0005                     	;# 
    58  0006                     	;# 
    59  0007                     	;# 
    60  0008                     	;# 
    61  0009                     	;# 
    62  000A                     	;# 
    63  000B                     	;# 
    64  000C                     	;# 
    65  000D                     	;# 
    66  000E                     	;# 
    67  000E                     	;# 
    68  000F                     	;# 
    69  0010                     	;# 
    70  0011                     	;# 
    71  0012                     	;# 
    72  0013                     	;# 
    73  0014                     	;# 
    74  0015                     	;# 
    75  0015                     	;# 
    76  0016                     	;# 
    77  0017                     	;# 
    78  0018                     	;# 
    79  0019                     	;# 
    80  001A                     	;# 
    81  001B                     	;# 
    82  001B                     	;# 
    83  001C                     	;# 
    84  001D                     	;# 
    85  001E                     	;# 
    86  001F                     	;# 
    87  0081                     	;# 
    88  0085                     	;# 
    89  0086                     	;# 
    90  0087                     	;# 
    91  0088                     	;# 
    92  0089                     	;# 
    93  008C                     	;# 
    94  008D                     	;# 
    95  008E                     	;# 
    96  008F                     	;# 
    97  0090                     	;# 
    98  0091                     	;# 
    99  0092                     	;# 
   100  0093                     	;# 
   101  0093                     	;# 
   102  0093                     	;# 
   103  0094                     	;# 
   104  0095                     	;# 
   105  0096                     	;# 
   106  0097                     	;# 
   107  0098                     	;# 
   108  0099                     	;# 
   109  009A                     	;# 
   110  009B                     	;# 
   111  009C                     	;# 
   112  009D                     	;# 
   113  009E                     	;# 
   114  009F                     	;# 
   115  0105                     	;# 
   116  0107                     	;# 
   117  0108                     	;# 
   118  0109                     	;# 
   119  010C                     	;# 
   120  010C                     	;# 
   121  010D                     	;# 
   122  010E                     	;# 
   123  010F                     	;# 
   124  0185                     	;# 
   125  0187                     	;# 
   126  0188                     	;# 
   127  0189                     	;# 
   128  018C                     	;# 
   129  018D                     	;# 
   130  001A                     _RCREG	set	26
   131  0019                     _TXREG	set	25
   132  0037                     _RB7	set	55
   133  0036                     _RB6	set	54
   134  0035                     _RB5	set	53
   135  0034                     _RB4	set	52
   136  0033                     _RB3	set	51
   137  0032                     _RB2	set	50
   138  0031                     _RB1	set	49
   139  0030                     _RB0	set	48
   140  0058                     _RBIF	set	88
   141  0047                     _RD7	set	71
   142  0046                     _RD6	set	70
   143  0045                     _RD5	set	69
   144  0044                     _RD4	set	68
   145  0043                     _RD3	set	67
   146  0042                     _RD2	set	66
   147  0041                     _RD1	set	65
   148  0040                     _RD0	set	64
   149  0065                     _RCIF	set	101
   150  005B                     _RBIE	set	91
   151  005C                     _INTE	set	92
   152  005E                     _PEIE	set	94
   153  005F                     _GIE	set	95
   154  00C4                     _CREN	set	196
   155  00C7                     _SPEN	set	199
   156  0096                     _IOCB	set	150
   157  0099                     _SPBRG	set	153
   158  0447                     _TRISD7	set	1095
   159  0446                     _TRISD6	set	1094
   160  0445                     _TRISD5	set	1093
   161  0444                     _TRISD4	set	1092
   162  0443                     _TRISD3	set	1091
   163  0442                     _TRISD2	set	1090
   164  0441                     _TRISD1	set	1089
   165  0440                     _TRISD0	set	1088
   166  04C1                     _TRMT	set	1217
   167  0465                     _RCIE	set	1125
   168  04C2                     _BRGH	set	1218
   169  04C4                     _SYNC	set	1220
   170  04C5                     _TXEN	set	1221
   171  0189                     _ANSELH	set	393
   172  0188                     _ANSEL	set	392
   173  0C3B                     _BRG16	set	3131
   174                           
   175                           	psect	strings
   176  05BC                     __pstrings:	
   177  05BC                     stringtab:	
   178  05BC                     __stringtab:	
   179  05BC                     stringcode:	
   180                           ;	String table - string pointers are 1 byte each
   181                           
   182  05BC                     stringdir:	
   183  05BC  3005               	movlw	high stringdir
   184  05BD  008A               	movwf	10
   185  05BE  0804               	movf	4,w
   186  05BF  0A84               	incf	4,f
   187  05C0  0782               	addwf	2,f
   188  05C1                     __stringbase:	
   189  05C1  3400               	retlw	0
   190  05C2                     __end_of__stringtab:	
   191  05C2                     STR_1:	
   192  05C2  344C               	retlw	76	;'L'
   193  05C3  3427               	retlw	39	;'''
   194  05C4  3445               	retlw	69	;'E'
   195  05C5  3471               	retlw	113	;'q'
   196  05C6  3475               	retlw	117	;'u'
   197  05C7  3469               	retlw	105	;'i'
   198  05C8  3470               	retlw	112	;'p'
   199  05C9  3465               	retlw	101	;'e'
   200  05CA  3420               	retlw	32	;' '
   201  05CB  3441               	retlw	65	;'A'
   202  05CC  3420               	retlw	32	;' '
   203  05CD  3461               	retlw	97	;'a'
   204  05CE  3420               	retlw	32	;' '
   205  05CF  346C               	retlw	108	;'l'
   206  05D0  3461               	retlw	97	;'a'
   207  05D1  3420               	retlw	32	;' '
   208  05D2  346D               	retlw	109	;'m'
   209  05D3  3461               	retlw	97	;'a'
   210  05D4  3469               	retlw	105	;'i'
   211  05D5  346E               	retlw	110	;'n'
   212  05D6  3400               	retlw	0
   213  05D7                     STR_2:	
   214  05D7  344C               	retlw	76	;'L'
   215  05D8  3427               	retlw	39	;'''
   216  05D9  3445               	retlw	69	;'E'
   217  05DA  3471               	retlw	113	;'q'
   218  05DB  3475               	retlw	117	;'u'
   219  05DC  3469               	retlw	105	;'i'
   220  05DD  3470               	retlw	112	;'p'
   221  05DE  3465               	retlw	101	;'e'
   222  05DF  3420               	retlw	32	;' '
   223  05E0  3442               	retlw	66	;'B'
   224  05E1  3420               	retlw	32	;' '
   225  05E2  3461               	retlw	97	;'a'
   226  05E3  3420               	retlw	32	;' '
   227  05E4  346C               	retlw	108	;'l'
   228  05E5  3461               	retlw	97	;'a'
   229  05E6  3420               	retlw	32	;' '
   230  05E7  346D               	retlw	109	;'m'
   231  05E8  3461               	retlw	97	;'a'
   232  05E9  3469               	retlw	105	;'i'
   233  05EA  346E               	retlw	110	;'n'
   234  05EB  3400               	retlw	0
   235  05C2                     
   236                           ; #config settings
   237  0000                     
   238                           	psect	cinit
   239  0015                     start_initialization:	
   240  0015                     __initialization:	
   241                           
   242                           ; Clear objects allocated to COMMON
   243  0015  01FA               	clrf	__pbssCOMMON& (0+127)
   244  0016  01FB               	clrf	(__pbssCOMMON+1)& (0+127)
   245  0017  01FC               	clrf	(__pbssCOMMON+2)& (0+127)
   246  0018  01FD               	clrf	(__pbssCOMMON+3)& (0+127)
   247                           
   248                           ; Clear objects allocated to BANK0
   249  0019  1283               	bcf	3,5	;RP0=0, select bank0
   250  001A  1303               	bcf	3,6	;RP1=0, select bank0
   251  001B  01A0               	clrf	__pbssBANK0& (0+127)
   252  001C                     end_of_initialization:	
   253                           ;End of C runtime variable initialization code
   254                           
   255  001C                     __end_of__initialization:	
   256  001C  0183               	clrf	3
   257  001D  120A  118A  2E13   	ljmp	_main	;jump to C main() function
   258                           
   259                           	psect	bssCOMMON
   260  007A                     __pbssCOMMON:	
   261  007A                     _etape:	
   262  007A                     	ds	2
   263  007C                     _phase:	
   264  007C                     	ds	2
   265                           
   266                           	psect	bssBANK0
   267  0020                     __pbssBANK0:	
   268  0020                     _t:	
   269  0020                     	ds	1
   270                           
   271                           	psect	cstackCOMMON
   272  0070                     __pcstackCOMMON:	
   273  0070                     ?_uart_unit:	
   274  0070                     ?_uart_txChar:	
   275                           ; 1 bytes @ 0x0
   276                           
   277  0070                     ??_uart_txChar:	
   278                           ; 1 bytes @ 0x0
   279                           
   280  0070                     ?_uart_txStr:	
   281                           ; 1 bytes @ 0x0
   282                           
   283  0070                     ?_jdk1:	
   284                           ; 1 bytes @ 0x0
   285                           
   286  0070                     ?_main:	
   287                           ; 1 bytes @ 0x0
   288                           
   289  0070                     uart_txChar@ch:	
   290                           ; 1 bytes @ 0x0
   291                           
   292                           
   293                           ; 1 bytes @ 0x0
   294  0070                     	ds	1
   295  0071                     ??_uart_txStr:	
   296                           
   297                           ; 1 bytes @ 0x1
   298  0071                     	ds	1
   299  0072                     uart_txStr@str:	
   300                           
   301                           ; 1 bytes @ 0x2
   302  0072                     	ds	1
   303  0073                     ??_jdk1:	
   304                           
   305                           ; 1 bytes @ 0x3
   306  0073                     	ds	7
   307                           
   308                           	psect	cstackBANK0
   309  0000                     __pcstackBANK0:	
   310  0000                     ??_uart_unit:	
   311  0000                     ??_main:	
   312                           ; 1 bytes @ 0x0
   313                           
   314                           
   315                           	psect	maintext
   316  0613                     __pmaintext:	
   317                           ; 1 bytes @ 0x0
   318 ;;
   319 ;;Main: autosize = 0, tempsize = 0, incstack = 0, save=0
   320 ;;
   321 ;; *************** function _main *****************
   322 ;; Defined at:
   323 ;;		line 536 in file "genie_en_herbe.c"
   324 ;; Parameters:    Size  Location     Type
   325 ;;		None
   326 ;; Auto vars:     Size  Location     Type
   327 ;;		None
   328 ;; Return value:  Size  Location     Type
   329 ;;                  1    wreg      void 
   330 ;; Registers used:
   331 ;;		wreg, status,2, status,0, pclath, cstack
   332 ;; Tracked objects:
   333 ;;		On entry : B00/0
   334 ;;		On exit  : 0/0
   335 ;;		Unchanged: 0/0
   336 ;; Data sizes:     COMMON   BANK0   BANK1   BANK3   BANK2
   337 ;;      Params:         0       0       0       0       0
   338 ;;      Locals:         0       0       0       0       0
   339 ;;      Temps:          0       0       0       0       0
   340 ;;      Totals:         0       0       0       0       0
   341 ;;Total ram usage:        0 bytes
   342 ;; Hardware stack levels required when called:    4
   343 ;; This function calls:
   344 ;;		_uart_unit
   345 ;; This function is called by:
   346 ;;		Startup code after reset
   347 ;; This function uses a non-reentrant model
   348 ;;
   349                           
   350                           
   351                           ;psect for function _main
   352  0613                     _main:	
   353                           
   354                           ;genie_en_herbe.c: 537: ANSEL = 0;
   355                           
   356                           ;incstack = 0
   357                           ; Regs used in _main: [wreg+status,2+status,0+pclath+cstack]
   358  0613  1683               	bsf	3,5	;RP0=1, select bank3
   359  0614  1703               	bsf	3,6	;RP1=1, select bank3
   360  0615  0188               	clrf	8	;volatile
   361                           
   362                           ;genie_en_herbe.c: 538: ANSELH = 0;
   363  0616  0189               	clrf	9	;volatile
   364                           
   365                           ;genie_en_herbe.c: 539: TRISD0 = 0;
   366  0617  1683               	bsf	3,5	;RP0=1, select bank1
   367  0618  1303               	bcf	3,6	;RP1=0, select bank1
   368  0619  1008               	bcf	8,0	;volatile
   369                           
   370                           ;genie_en_herbe.c: 540: TRISD1 = 0;
   371  061A  1088               	bcf	8,1	;volatile
   372                           
   373                           ;genie_en_herbe.c: 541: TRISD2 = 0;
   374  061B  1108               	bcf	8,2	;volatile
   375                           
   376                           ;genie_en_herbe.c: 542: TRISD3 = 0;
   377  061C  1188               	bcf	8,3	;volatile
   378                           
   379                           ;genie_en_herbe.c: 543: TRISD4 = 0;
   380  061D  1208               	bcf	8,4	;volatile
   381                           
   382                           ;genie_en_herbe.c: 544: TRISD5 = 0;
   383  061E  1288               	bcf	8,5	;volatile
   384                           
   385                           ;genie_en_herbe.c: 545: TRISD6 = 0;
   386  061F  1308               	bcf	8,6	;volatile
   387                           
   388                           ;genie_en_herbe.c: 546: TRISD7 = 0;
   389  0620  1388               	bcf	8,7	;volatile
   390                           
   391                           ;genie_en_herbe.c: 547: RD0 = 0;
   392  0621  1283               	bcf	3,5	;RP0=0, select bank0
   393  0622  1303               	bcf	3,6	;RP1=0, select bank0
   394  0623  1008               	bcf	8,0	;volatile
   395                           
   396                           ;genie_en_herbe.c: 548: RD1 = 0;
   397  0624  1088               	bcf	8,1	;volatile
   398                           
   399                           ;genie_en_herbe.c: 549: RD2 = 0;
   400  0625  1108               	bcf	8,2	;volatile
   401                           
   402                           ;genie_en_herbe.c: 550: RD3 = 0;
   403  0626  1188               	bcf	8,3	;volatile
   404                           
   405                           ;genie_en_herbe.c: 551: RD4 = 0;
   406  0627  1208               	bcf	8,4	;volatile
   407                           
   408                           ;genie_en_herbe.c: 552: RD5 = 0;
   409  0628  1288               	bcf	8,5	;volatile
   410                           
   411                           ;genie_en_herbe.c: 553: RD6 = 0;
   412  0629  1308               	bcf	8,6	;volatile
   413                           
   414                           ;genie_en_herbe.c: 554: RD7 = 0;
   415  062A  1388               	bcf	8,7	;volatile
   416                           
   417                           ;genie_en_herbe.c: 555: uart_unit();
   418  062B  120A  118A  2631  120A  118A  	fcall	_uart_unit
   419  0630                     l253:	
   420                           ;genie_en_herbe.c: 556: while (1);
   421                           
   422  0630  2E30               	goto	l253
   423  0631                     __end_of_main:	
   424                           
   425                           	psect	text1
   426  0631                     __ptext1:	
   427 ;; *************** function _uart_unit *****************
   428 ;; Defined at:
   429 ;;		line 57 in file "genie_en_herbe.c"
   430 ;; Parameters:    Size  Location     Type
   431 ;;		None
   432 ;; Auto vars:     Size  Location     Type
   433 ;;		None
   434 ;; Return value:  Size  Location     Type
   435 ;;                  1    wreg      void 
   436 ;; Registers used:
   437 ;;		wreg
   438 ;; Tracked objects:
   439 ;;		On entry : 0/0
   440 ;;		On exit  : 0/0
   441 ;;		Unchanged: 0/0
   442 ;; Data sizes:     COMMON   BANK0   BANK1   BANK3   BANK2
   443 ;;      Params:         0       0       0       0       0
   444 ;;      Locals:         0       0       0       0       0
   445 ;;      Temps:          0       0       0       0       0
   446 ;;      Totals:         0       0       0       0       0
   447 ;;Total ram usage:        0 bytes
   448 ;; Hardware stack levels used:    1
   449 ;; Hardware stack levels required when called:    3
   450 ;; This function calls:
   451 ;;		Nothing
   452 ;; This function is called by:
   453 ;;		_main
   454 ;; This function uses a non-reentrant model
   455 ;;
   456                           
   457                           
   458                           ;psect for function _uart_unit
   459  0631                     _uart_unit:	
   460                           
   461                           ;genie_en_herbe.c: 58: TXEN = 1;
   462                           
   463                           ;incstack = 0
   464                           ; Regs used in _uart_unit: [wreg]
   465  0631  1683               	bsf	3,5	;RP0=1, select bank1
   466  0632  1303               	bcf	3,6	;RP1=0, select bank1
   467  0633  1698               	bsf	24,5	;volatile
   468                           
   469                           ;genie_en_herbe.c: 59: SYNC = 0;
   470  0634  1218               	bcf	24,4	;volatile
   471                           
   472                           ;genie_en_herbe.c: 60: BRGH = 1;
   473  0635  1518               	bsf	24,2	;volatile
   474                           
   475                           ;genie_en_herbe.c: 61: BRG16 = 0;
   476  0636  1683               	bsf	3,5	;RP0=1, select bank3
   477  0637  1703               	bsf	3,6	;RP1=1, select bank3
   478  0638  1187               	bcf	7,3	;volatile
   479                           
   480                           ;genie_en_herbe.c: 62: SPBRG = 129;
   481  0639  3081               	movlw	129
   482  063A  1683               	bsf	3,5	;RP0=1, select bank1
   483  063B  1303               	bcf	3,6	;RP1=0, select bank1
   484  063C  0099               	movwf	25	;volatile
   485                           
   486                           ;genie_en_herbe.c: 63: SPEN = 1;
   487  063D  1283               	bcf	3,5	;RP0=0, select bank0
   488  063E  1303               	bcf	3,6	;RP1=0, select bank0
   489  063F  1798               	bsf	24,7	;volatile
   490                           
   491                           ;genie_en_herbe.c: 64: CREN = 1;
   492  0640  1618               	bsf	24,4	;volatile
   493                           
   494                           ;genie_en_herbe.c: 65: GIE = 1;
   495  0641  178B               	bsf	11,7	;volatile
   496                           
   497                           ;genie_en_herbe.c: 66: PEIE = 1;
   498  0642  170B               	bsf	11,6	;volatile
   499                           
   500                           ;genie_en_herbe.c: 67: INTE = 1;
   501  0643  160B               	bsf	11,4	;volatile
   502                           
   503                           ;genie_en_herbe.c: 68: RCIE = 1;
   504  0644  1683               	bsf	3,5	;RP0=1, select bank1
   505  0645  1303               	bcf	3,6	;RP1=0, select bank1
   506  0646  168C               	bsf	12,5	;volatile
   507                           
   508                           ;genie_en_herbe.c: 69: RBIE = 1;
   509  0647  158B               	bsf	11,3	;volatile
   510                           
   511                           ;genie_en_herbe.c: 70: IOCB = 0xFF;
   512  0648  30FF               	movlw	255
   513  0649  0096               	movwf	22	;volatile
   514  064A  0008               	return
   515  064B                     __end_of_uart_unit:	
   516                           
   517                           	psect	text2
   518  0020                     __ptext2:	
   519 ;; *************** function _jdk1 *****************
   520 ;; Defined at:
   521 ;;		line 87 in file "genie_en_herbe.c"
   522 ;; Parameters:    Size  Location     Type
   523 ;;		None
   524 ;; Auto vars:     Size  Location     Type
   525 ;;		None
   526 ;; Return value:  Size  Location     Type
   527 ;;                  1    wreg      void 
   528 ;; Registers used:
   529 ;;		wreg, fsr0l, fsr0h, status,2, status,0, pclath, cstack
   530 ;; Tracked objects:
   531 ;;		On entry : 0/0
   532 ;;		On exit  : 0/0
   533 ;;		Unchanged: 0/0
   534 ;; Data sizes:     COMMON   BANK0   BANK1   BANK3   BANK2
   535 ;;      Params:         0       0       0       0       0
   536 ;;      Locals:         0       0       0       0       0
   537 ;;      Temps:          7       0       0       0       0
   538 ;;      Totals:         7       0       0       0       0
   539 ;;Total ram usage:        7 bytes
   540 ;; Hardware stack levels used:    1
   541 ;; Hardware stack levels required when called:    2
   542 ;; This function calls:
   543 ;;		_uart_txStr
   544 ;; This function is called by:
   545 ;;		Interrupt level 1
   546 ;; This function uses a non-reentrant model
   547 ;;
   548                           
   549                           
   550                           ;psect for function _jdk1
   551  0020                     _jdk1:	
   552                           
   553                           ;genie_en_herbe.c: 88: if (RCIF) {
   554  0020  1E8C               	btfss	12,5	;volatile
   555  0021  287E               	goto	i1l1304
   556                           
   557                           ;genie_en_herbe.c: 89: RCIF = 0;
   558  0022  128C               	bcf	12,5	;volatile
   559                           
   560                           ;genie_en_herbe.c: 90: if (RCREG == 'I' || ((RD0 == 1 || RD1 == 1 || RD2 == 1 || RD3 == 
      +                          1 || RD4 == 1 || RD5 == 1 || RD6 == 1 || RD7 == 1) && RCREG == 'V')) {
   561  0023  3049               	movlw	73
   562  0024  061A               	xorwf	26,w	;volatile
   563  0025  1903               	btfsc	3,2
   564  0026  2838               	goto	i1l119
   565  0027  1C08               	btfss	8,0	;volatile
   566  0028  1888               	btfsc	8,1	;volatile
   567  0029  2834               	goto	i1l1270
   568  002A  1D08               	btfss	8,2	;volatile
   569  002B  1988               	btfsc	8,3	;volatile
   570  002C  2834               	goto	i1l1270
   571  002D  1E08               	btfss	8,4	;volatile
   572  002E  1A88               	btfsc	8,5	;volatile
   573  002F  2834               	goto	i1l1270
   574  0030  1B08               	btfsc	8,6	;volatile
   575  0031  2834               	goto	i1l1270
   576  0032  1F88               	btfss	8,7	;volatile
   577  0033  2842               	goto	i1l1274
   578  0034                     i1l1270:	
   579  0034  3056               	movlw	86
   580  0035  061A               	xorwf	26,w	;volatile
   581  0036  1D03               	btfss	3,2
   582  0037  2842               	goto	i1l1274
   583  0038                     i1l119:	
   584                           
   585                           ;genie_en_herbe.c: 91: RD0 = 0;
   586  0038  1008               	bcf	8,0	;volatile
   587                           
   588                           ;genie_en_herbe.c: 92: RD1 = 0;
   589  0039  1088               	bcf	8,1	;volatile
   590                           
   591                           ;genie_en_herbe.c: 93: RD2 = 0;
   592  003A  1108               	bcf	8,2	;volatile
   593                           
   594                           ;genie_en_herbe.c: 94: RD3 = 0;
   595  003B  1188               	bcf	8,3	;volatile
   596                           
   597                           ;genie_en_herbe.c: 95: RD4 = 0;
   598  003C  1208               	bcf	8,4	;volatile
   599                           
   600                           ;genie_en_herbe.c: 96: RD5 = 0;
   601  003D  1288               	bcf	8,5	;volatile
   602                           
   603                           ;genie_en_herbe.c: 97: RD6 = 0;
   604  003E  1308               	bcf	8,6	;volatile
   605                           
   606                           ;genie_en_herbe.c: 98: RD7 = 0;
   607  003F  1388               	bcf	8,7	;volatile
   608                           
   609                           ;genie_en_herbe.c: 99: phase = 0;
   610  0040  01FC               	clrf	_phase
   611  0041  01FD               	clrf	_phase+1
   612  0042                     i1l1274:	
   613                           
   614                           ;genie_en_herbe.c: 100: }
   615                           ;genie_en_herbe.c: 101: if (RCREG == 'Q') {
   616  0042  3051               	movlw	81
   617  0043  061A               	xorwf	26,w	;volatile
   618  0044  1D03               	btfss	3,2
   619  0045  2852               	goto	i1l1280
   620                           
   621                           ;genie_en_herbe.c: 102: RD0 = 1;
   622  0046  1408               	bsf	8,0	;volatile
   623                           
   624                           ;genie_en_herbe.c: 103: RD1 = 1;
   625  0047  1488               	bsf	8,1	;volatile
   626                           
   627                           ;genie_en_herbe.c: 104: RD2 = 1;
   628  0048  1508               	bsf	8,2	;volatile
   629                           
   630                           ;genie_en_herbe.c: 105: RD3 = 1;
   631  0049  1588               	bsf	8,3	;volatile
   632                           
   633                           ;genie_en_herbe.c: 106: RD4 = 1;
   634  004A  1608               	bsf	8,4	;volatile
   635                           
   636                           ;genie_en_herbe.c: 107: RD5 = 1;
   637  004B  1688               	bsf	8,5	;volatile
   638                           
   639                           ;genie_en_herbe.c: 108: RD6 = 1;
   640  004C  1708               	bsf	8,6	;volatile
   641                           
   642                           ;genie_en_herbe.c: 109: RD7 = 1;
   643  004D  1788               	bsf	8,7	;volatile
   644                           
   645                           ;genie_en_herbe.c: 110: phase = 3;
   646  004E  3003               	movlw	3
   647  004F  00FC               	movwf	_phase
   648  0050  3000               	movlw	0
   649  0051  00FD               	movwf	_phase+1
   650  0052                     i1l1280:	
   651                           
   652                           ;genie_en_herbe.c: 111: }
   653                           ;genie_en_herbe.c: 112: if (RCREG == '1') {
   654  0052  3031               	movlw	49
   655  0053  061A               	xorwf	26,w	;volatile
   656  0054  1D03               	btfss	3,2
   657  0055  2858               	goto	i1l1284
   658                           
   659                           ;genie_en_herbe.c: 113: etape = 1;
   660  0056  3001               	movlw	1
   661  0057  2863               	goto	L2
   662  0058                     i1l1284:	
   663                           ;genie_en_herbe.c: 114: } else if (RCREG == '2') {
   664                           
   665  0058  3032               	movlw	50
   666  0059  061A               	xorwf	26,w	;volatile
   667  005A  1D03               	btfss	3,2
   668  005B  285E               	goto	i1l1288
   669                           
   670                           ;genie_en_herbe.c: 115: etape = 2;
   671  005C  3002               	movlw	2
   672  005D  2863               	goto	L2
   673  005E                     i1l1288:	
   674                           ;genie_en_herbe.c: 116: } else if (RCREG == '3') {
   675                           
   676  005E  3033               	movlw	51
   677  005F  061A               	xorwf	26,w	;volatile
   678  0060  1D03               	btfss	3,2
   679  0061  2866               	goto	i1l1292
   680                           
   681                           ;genie_en_herbe.c: 117: etape = 3;
   682  0062  3003               	movlw	3
   683  0063                     L2:	
   684  0063  00FA               	movwf	_etape
   685  0064  3000               	movlw	0
   686  0065  00FB               	movwf	_etape+1
   687  0066                     i1l1292:	
   688                           
   689                           ;genie_en_herbe.c: 118: }
   690                           ;genie_en_herbe.c: 119: if (RCREG == 'B') {
   691  0066  3042               	movlw	66
   692  0067  061A               	xorwf	26,w	;volatile
   693  0068  1D03               	btfss	3,2
   694  0069  2872               	goto	i1l1298
   695                           
   696                           ;genie_en_herbe.c: 120: RD0 = 0;
   697  006A  1008               	bcf	8,0	;volatile
   698                           
   699                           ;genie_en_herbe.c: 121: RD1 = 0;
   700  006B  1088               	bcf	8,1	;volatile
   701                           
   702                           ;genie_en_herbe.c: 122: RD2 = 0;
   703  006C  1108               	bcf	8,2	;volatile
   704                           
   705                           ;genie_en_herbe.c: 123: RD3 = 0;
   706  006D  1188               	bcf	8,3	;volatile
   707                           
   708                           ;genie_en_herbe.c: 124: phase = 1;
   709  006E  3001               	movlw	1
   710  006F  00FC               	movwf	_phase
   711  0070  3000               	movlw	0
   712  0071  00FD               	movwf	_phase+1
   713  0072                     i1l1298:	
   714                           
   715                           ;genie_en_herbe.c: 125: }
   716                           ;genie_en_herbe.c: 126: if (RCREG == 'A') {
   717  0072  3041               	movlw	65
   718  0073  061A               	xorwf	26,w	;volatile
   719  0074  1D03               	btfss	3,2
   720  0075  287E               	goto	i1l1304
   721                           
   722                           ;genie_en_herbe.c: 127: RD4 = 0;
   723  0076  1208               	bcf	8,4	;volatile
   724                           
   725                           ;genie_en_herbe.c: 128: RD5 = 0;
   726  0077  1288               	bcf	8,5	;volatile
   727                           
   728                           ;genie_en_herbe.c: 129: RD6 = 0;
   729  0078  1308               	bcf	8,6	;volatile
   730                           
   731                           ;genie_en_herbe.c: 130: RD7 = 0;
   732  0079  1388               	bcf	8,7	;volatile
   733                           
   734                           ;genie_en_herbe.c: 131: phase = 2;
   735  007A  3002               	movlw	2
   736  007B  00FC               	movwf	_phase
   737  007C  3000               	movlw	0
   738  007D  00FD               	movwf	_phase+1
   739  007E                     i1l1304:	
   740                           
   741                           ;genie_en_herbe.c: 132: }
   742                           ;genie_en_herbe.c: 134: }
   743                           ;genie_en_herbe.c: 138: if (RBIF) {
   744  007E  1C0B               	btfss	11,0	;volatile
   745  007F  2DB1               	goto	i1l248
   746                           
   747                           ;genie_en_herbe.c: 139: RBIF = 0;
   748  0080  100B               	bcf	11,0	;volatile
   749                           
   750                           ;genie_en_herbe.c: 141: while (etape == 1) {
   751  0081  2AF5               	goto	i1l1500
   752  0082                     i1l134:	
   753                           ;genie_en_herbe.c: 142: while (RB0 == 0 && (phase == 0 || phase == 2)) {
   754                           
   755                           
   756                           ;genie_en_herbe.c: 143: RD0 = 1;
   757  0082  1408               	bsf	8,0	;volatile
   758                           
   759                           ;genie_en_herbe.c: 144: RD1 = 0;
   760  0083  1088               	bcf	8,1	;volatile
   761                           
   762                           ;genie_en_herbe.c: 145: RD2 = 0;
   763  0084  1108               	bcf	8,2	;volatile
   764                           
   765                           ;genie_en_herbe.c: 146: RD3 = 0;
   766  0085  1188               	bcf	8,3	;volatile
   767                           
   768                           ;genie_en_herbe.c: 147: RD4 = 0;
   769  0086  1208               	bcf	8,4	;volatile
   770                           
   771                           ;genie_en_herbe.c: 148: RD5 = 0;
   772  0087  1288               	bcf	8,5	;volatile
   773                           
   774                           ;genie_en_herbe.c: 149: RD6 = 0;
   775  0088  1308               	bcf	8,6	;volatile
   776                           
   777                           ;genie_en_herbe.c: 150: RD7 = 0;
   778  0089  1388               	bcf	8,7	;volatile
   779                           
   780                           ;genie_en_herbe.c: 151: uart_txStr("L'Equipe A a la main");
   781  008A  3001               	movlw	(low ((STR_1-__stringbase)| (0+32768)))& (0+255)
   782  008B  120A  118A  25EC  120A  118A  	fcall	_uart_txStr
   783                           
   784                           ;genie_en_herbe.c: 152: _delay((unsigned long)((3000)*(20e6/4000.0)));
   785  0090  304D               	movlw	77
   786  0091  00F5               	movwf	??_jdk1+2
   787  0092  3019               	movlw	25
   788  0093  00F4               	movwf	??_jdk1+1
   789  0094  304F               	movlw	79
   790  0095  00F3               	movwf	??_jdk1
   791  0096                     u192_27:	
   792  0096  0BF3               	decfsz	??_jdk1,f
   793  0097  2896               	goto	u192_27
   794  0098  0BF4               	decfsz	??_jdk1+1,f
   795  0099  2896               	goto	u192_27
   796  009A  0BF5               	decfsz	??_jdk1+2,f
   797  009B  2896               	goto	u192_27
   798  009C  289D               	nop2
   799                           
   800                           ;genie_en_herbe.c: 153: RD0 = 0;
   801  009D  1283               	bcf	3,5	;RP0=0, select bank0
   802  009E  1303               	bcf	3,6	;RP1=0, select bank0
   803  009F  1008               	bcf	8,0	;volatile
   804                           
   805                           ;genie_en_herbe.c: 154: phase = 3;
   806  00A0  3003               	movlw	3
   807  00A1  00FC               	movwf	_phase
   808  00A2  3000               	movlw	0
   809  00A3  00FD               	movwf	_phase+1
   810                           
   811                           ;genie_en_herbe.c: 155: _delay((unsigned long)((4000)*(20e6/4000.0)));
   812  00A4  3066               	movlw	102
   813  00A5  00F5               	movwf	??_jdk1+2
   814  00A6  3076               	movlw	118
   815  00A7  00F4               	movwf	??_jdk1+1
   816  00A8  30C1               	movlw	193
   817  00A9  00F3               	movwf	??_jdk1
   818  00AA                     u193_27:	
   819  00AA  0BF3               	decfsz	??_jdk1,f
   820  00AB  28AA               	goto	u193_27
   821  00AC  0BF4               	decfsz	??_jdk1+1,f
   822  00AD  28AA               	goto	u193_27
   823  00AE  0BF5               	decfsz	??_jdk1+2,f
   824  00AF  28AA               	goto	u193_27
   825                           
   826                           ;genie_en_herbe.c: 156: if (RCREG == 'I') {
   827  00B0  3049               	movlw	73
   828  00B1  1283               	bcf	3,5	;RP0=0, select bank0
   829  00B2  1303               	bcf	3,6	;RP1=0, select bank0
   830  00B3  061A               	xorwf	26,w	;volatile
   831  00B4  1D03               	btfss	3,2
   832  00B5  28B9               	goto	i1l1322
   833                           
   834                           ;genie_en_herbe.c: 157: phase = 0;
   835  00B6  01FC               	clrf	_phase
   836  00B7  01FD               	clrf	_phase+1
   837                           
   838                           ;genie_en_herbe.c: 158: } else {
   839  00B8  28C3               	goto	i1l1326
   840  00B9                     i1l1322:	
   841                           
   842                           ;genie_en_herbe.c: 159: phase = 3;
   843  00B9  3003               	movlw	3
   844  00BA  00FC               	movwf	_phase
   845  00BB  3000               	movlw	0
   846  00BC  00FD               	movwf	_phase+1
   847                           
   848                           ;genie_en_herbe.c: 160: uart_txStr("L'Equipe B a la main");
   849  00BD  3016               	movlw	(low ((STR_2-__stringbase)| (0+32768)))& (0+255)
   850  00BE  120A  118A  25EC  120A  118A  	fcall	_uart_txStr
   851  00C3                     i1l1326:	
   852  00C3  1283               	bcf	3,5	;RP0=0, select bank0
   853  00C4  1303               	bcf	3,6	;RP1=0, select bank0
   854  00C5  1806               	btfsc	6,0	;volatile
   855  00C6  2912               	goto	i1l1350
   856  00C7  087C               	movf	_phase,w
   857  00C8  047D               	iorwf	_phase+1,w
   858  00C9  1903               	btfsc	3,2
   859  00CA  2882               	goto	i1l134
   860  00CB  3002               	movlw	2
   861  00CC  067C               	xorwf	_phase,w
   862  00CD  047D               	iorwf	_phase+1,w
   863  00CE  1D03               	btfss	3,2
   864  00CF  2912               	goto	i1l1350
   865  00D0  2882               	goto	i1l134
   866  00D1                     i1l141:	
   867                           ;genie_en_herbe.c: 161: }
   868                           ;genie_en_herbe.c: 162: }
   869                           ;genie_en_herbe.c: 163: while (RB1 == 0 && (phase == 0 || phase == 2)) {
   870                           
   871                           
   872                           ;genie_en_herbe.c: 164: RD1 = 1;
   873  00D1  1488               	bsf	8,1	;volatile
   874                           
   875                           ;genie_en_herbe.c: 165: RD0 = 0;
   876  00D2  1008               	bcf	8,0	;volatile
   877                           
   878                           ;genie_en_herbe.c: 166: RD2 = 0;
   879  00D3  1108               	bcf	8,2	;volatile
   880                           
   881                           ;genie_en_herbe.c: 167: RD3 = 0;
   882  00D4  1188               	bcf	8,3	;volatile
   883                           
   884                           ;genie_en_herbe.c: 168: RD4 = 0;
   885  00D5  1208               	bcf	8,4	;volatile
   886                           
   887                           ;genie_en_herbe.c: 169: RD5 = 0;
   888  00D6  1288               	bcf	8,5	;volatile
   889                           
   890                           ;genie_en_herbe.c: 170: RD6 = 0;
   891  00D7  1308               	bcf	8,6	;volatile
   892                           
   893                           ;genie_en_herbe.c: 171: RD7 = 0;
   894  00D8  1388               	bcf	8,7	;volatile
   895                           
   896                           ;genie_en_herbe.c: 172: uart_txStr("L'Equipe A a la main");
   897  00D9  3001               	movlw	(low ((STR_1-__stringbase)| (0+32768)))& (0+255)
   898  00DA  120A  118A  25EC  120A  118A  	fcall	_uart_txStr
   899                           
   900                           ;genie_en_herbe.c: 173: _delay((unsigned long)((3000)*(20e6/4000.0)));
   901  00DF  304D               	movlw	77
   902  00E0  00F5               	movwf	??_jdk1+2
   903  00E1  3019               	movlw	25
   904  00E2  00F4               	movwf	??_jdk1+1
   905  00E3  304F               	movlw	79
   906  00E4  00F3               	movwf	??_jdk1
   907  00E5                     u194_27:	
   908  00E5  0BF3               	decfsz	??_jdk1,f
   909  00E6  28E5               	goto	u194_27
   910  00E7  0BF4               	decfsz	??_jdk1+1,f
   911  00E8  28E5               	goto	u194_27
   912  00E9  0BF5               	decfsz	??_jdk1+2,f
   913  00EA  28E5               	goto	u194_27
   914  00EB  28EC               	nop2
   915                           
   916                           ;genie_en_herbe.c: 174: RD1 = 0;
   917  00EC  1283               	bcf	3,5	;RP0=0, select bank0
   918  00ED  1303               	bcf	3,6	;RP1=0, select bank0
   919  00EE  1088               	bcf	8,1	;volatile
   920                           
   921                           ;genie_en_herbe.c: 175: phase = 3;
   922  00EF  3003               	movlw	3
   923  00F0  00FC               	movwf	_phase
   924  00F1  3000               	movlw	0
   925  00F2  00FD               	movwf	_phase+1
   926                           
   927                           ;genie_en_herbe.c: 176: _delay((unsigned long)((4000)*(20e6/4000.0)));
   928  00F3  3066               	movlw	102
   929  00F4  00F5               	movwf	??_jdk1+2
   930  00F5  3076               	movlw	118
   931  00F6  00F4               	movwf	??_jdk1+1
   932  00F7  30C1               	movlw	193
   933  00F8  00F3               	movwf	??_jdk1
   934  00F9                     u195_27:	
   935  00F9  0BF3               	decfsz	??_jdk1,f
   936  00FA  28F9               	goto	u195_27
   937  00FB  0BF4               	decfsz	??_jdk1+1,f
   938  00FC  28F9               	goto	u195_27
   939  00FD  0BF5               	decfsz	??_jdk1+2,f
   940  00FE  28F9               	goto	u195_27
   941                           
   942                           ;genie_en_herbe.c: 177: if (RCREG == 'I') {
   943  00FF  3049               	movlw	73
   944  0100  1283               	bcf	3,5	;RP0=0, select bank0
   945  0101  1303               	bcf	3,6	;RP1=0, select bank0
   946  0102  061A               	xorwf	26,w	;volatile
   947  0103  1D03               	btfss	3,2
   948  0104  2908               	goto	i1l1346
   949                           
   950                           ;genie_en_herbe.c: 178: phase = 0;
   951  0105  01FC               	clrf	_phase
   952  0106  01FD               	clrf	_phase+1
   953                           
   954                           ;genie_en_herbe.c: 179: } else {
   955  0107  2912               	goto	i1l1350
   956  0108                     i1l1346:	
   957                           
   958                           ;genie_en_herbe.c: 180: phase = 3;
   959  0108  3003               	movlw	3
   960  0109  00FC               	movwf	_phase
   961  010A  3000               	movlw	0
   962  010B  00FD               	movwf	_phase+1
   963                           
   964                           ;genie_en_herbe.c: 181: uart_txStr("L'Equipe B a la main");
   965  010C  3016               	movlw	(low ((STR_2-__stringbase)| (0+32768)))& (0+255)
   966  010D  120A  118A  25EC  120A  118A  	fcall	_uart_txStr
   967  0112                     i1l1350:	
   968  0112  1283               	bcf	3,5	;RP0=0, select bank0
   969  0113  1303               	bcf	3,6	;RP1=0, select bank0
   970  0114  1886               	btfsc	6,1	;volatile
   971  0115  2961               	goto	i1l1374
   972  0116  087C               	movf	_phase,w
   973  0117  047D               	iorwf	_phase+1,w
   974  0118  1903               	btfsc	3,2
   975  0119  28D1               	goto	i1l141
   976  011A  3002               	movlw	2
   977  011B  067C               	xorwf	_phase,w
   978  011C  047D               	iorwf	_phase+1,w
   979  011D  1D03               	btfss	3,2
   980  011E  2961               	goto	i1l1374
   981  011F  28D1               	goto	i1l141
   982  0120                     i1l148:	
   983                           ;genie_en_herbe.c: 182: }
   984                           ;genie_en_herbe.c: 183: }
   985                           ;genie_en_herbe.c: 184: while (RB2 == 0 && (phase == 0 || phase == 2)) {
   986                           
   987                           
   988                           ;genie_en_herbe.c: 185: RD2 = 1;
   989  0120  1508               	bsf	8,2	;volatile
   990                           
   991                           ;genie_en_herbe.c: 186: RD0 = 0;
   992  0121  1008               	bcf	8,0	;volatile
   993                           
   994                           ;genie_en_herbe.c: 187: RD1 = 0;
   995  0122  1088               	bcf	8,1	;volatile
   996                           
   997                           ;genie_en_herbe.c: 188: RD3 = 0;
   998  0123  1188               	bcf	8,3	;volatile
   999                           
  1000                           ;genie_en_herbe.c: 189: RD4 = 0;
  1001  0124  1208               	bcf	8,4	;volatile
  1002                           
  1003                           ;genie_en_herbe.c: 190: RD5 = 0;
  1004  0125  1288               	bcf	8,5	;volatile
  1005                           
  1006                           ;genie_en_herbe.c: 191: RD6 = 0;
  1007  0126  1308               	bcf	8,6	;volatile
  1008                           
  1009                           ;genie_en_herbe.c: 192: RD7 = 0;
  1010  0127  1388               	bcf	8,7	;volatile
  1011                           
  1012                           ;genie_en_herbe.c: 193: uart_txStr("L'Equipe A a la main");
  1013  0128  3001               	movlw	(low ((STR_1-__stringbase)| (0+32768)))& (0+255)
  1014  0129  120A  118A  25EC  120A  118A  	fcall	_uart_txStr
  1015                           
  1016                           ;genie_en_herbe.c: 194: _delay((unsigned long)((3000)*(20e6/4000.0)));
  1017  012E  304D               	movlw	77
  1018  012F  00F5               	movwf	??_jdk1+2
  1019  0130  3019               	movlw	25
  1020  0131  00F4               	movwf	??_jdk1+1
  1021  0132  304F               	movlw	79
  1022  0133  00F3               	movwf	??_jdk1
  1023  0134                     u196_27:	
  1024  0134  0BF3               	decfsz	??_jdk1,f
  1025  0135  2934               	goto	u196_27
  1026  0136  0BF4               	decfsz	??_jdk1+1,f
  1027  0137  2934               	goto	u196_27
  1028  0138  0BF5               	decfsz	??_jdk1+2,f
  1029  0139  2934               	goto	u196_27
  1030  013A  293B               	nop2
  1031                           
  1032                           ;genie_en_herbe.c: 195: RD2 = 0;
  1033  013B  1283               	bcf	3,5	;RP0=0, select bank0
  1034  013C  1303               	bcf	3,6	;RP1=0, select bank0
  1035  013D  1108               	bcf	8,2	;volatile
  1036                           
  1037                           ;genie_en_herbe.c: 196: phase = 3;
  1038  013E  3003               	movlw	3
  1039  013F  00FC               	movwf	_phase
  1040  0140  3000               	movlw	0
  1041  0141  00FD               	movwf	_phase+1
  1042                           
  1043                           ;genie_en_herbe.c: 197: _delay((unsigned long)((4000)*(20e6/4000.0)));
  1044  0142  3066               	movlw	102
  1045  0143  00F5               	movwf	??_jdk1+2
  1046  0144  3076               	movlw	118
  1047  0145  00F4               	movwf	??_jdk1+1
  1048  0146  30C1               	movlw	193
  1049  0147  00F3               	movwf	??_jdk1
  1050  0148                     u197_27:	
  1051  0148  0BF3               	decfsz	??_jdk1,f
  1052  0149  2948               	goto	u197_27
  1053  014A  0BF4               	decfsz	??_jdk1+1,f
  1054  014B  2948               	goto	u197_27
  1055  014C  0BF5               	decfsz	??_jdk1+2,f
  1056  014D  2948               	goto	u197_27
  1057                           
  1058                           ;genie_en_herbe.c: 198: if (RCREG == 'I') {
  1059  014E  3049               	movlw	73
  1060  014F  1283               	bcf	3,5	;RP0=0, select bank0
  1061  0150  1303               	bcf	3,6	;RP1=0, select bank0
  1062  0151  061A               	xorwf	26,w	;volatile
  1063  0152  1D03               	btfss	3,2
  1064  0153  2957               	goto	i1l1370
  1065                           
  1066                           ;genie_en_herbe.c: 199: phase = 0;
  1067  0154  01FC               	clrf	_phase
  1068  0155  01FD               	clrf	_phase+1
  1069                           
  1070                           ;genie_en_herbe.c: 200: } else {
  1071  0156  2961               	goto	i1l1374
  1072  0157                     i1l1370:	
  1073                           
  1074                           ;genie_en_herbe.c: 201: phase = 3;
  1075  0157  3003               	movlw	3
  1076  0158  00FC               	movwf	_phase
  1077  0159  3000               	movlw	0
  1078  015A  00FD               	movwf	_phase+1
  1079                           
  1080                           ;genie_en_herbe.c: 202: uart_txStr("L'Equipe B a la main");
  1081  015B  3016               	movlw	(low ((STR_2-__stringbase)| (0+32768)))& (0+255)
  1082  015C  120A  118A  25EC  120A  118A  	fcall	_uart_txStr
  1083  0161                     i1l1374:	
  1084  0161  1283               	bcf	3,5	;RP0=0, select bank0
  1085  0162  1303               	bcf	3,6	;RP1=0, select bank0
  1086  0163  1906               	btfsc	6,2	;volatile
  1087  0164  29B0               	goto	i1l1398
  1088  0165  087C               	movf	_phase,w
  1089  0166  047D               	iorwf	_phase+1,w
  1090  0167  1903               	btfsc	3,2
  1091  0168  2920               	goto	i1l148
  1092  0169  3002               	movlw	2
  1093  016A  067C               	xorwf	_phase,w
  1094  016B  047D               	iorwf	_phase+1,w
  1095  016C  1D03               	btfss	3,2
  1096  016D  29B0               	goto	i1l1398
  1097  016E  2920               	goto	i1l148
  1098  016F                     i1l155:	
  1099                           ;genie_en_herbe.c: 203: }
  1100                           ;genie_en_herbe.c: 204: }
  1101                           ;genie_en_herbe.c: 205: while (RB3 == 0 && (phase == 0 || phase == 2)) {
  1102                           
  1103                           
  1104                           ;genie_en_herbe.c: 206: RD3 = 1;
  1105  016F  1588               	bsf	8,3	;volatile
  1106                           
  1107                           ;genie_en_herbe.c: 207: RD0 = 0;
  1108  0170  1008               	bcf	8,0	;volatile
  1109                           
  1110                           ;genie_en_herbe.c: 208: RD1 = 0;
  1111  0171  1088               	bcf	8,1	;volatile
  1112                           
  1113                           ;genie_en_herbe.c: 209: RD2 = 0;
  1114  0172  1108               	bcf	8,2	;volatile
  1115                           
  1116                           ;genie_en_herbe.c: 210: RD4 = 0;
  1117  0173  1208               	bcf	8,4	;volatile
  1118                           
  1119                           ;genie_en_herbe.c: 211: RD5 = 0;
  1120  0174  1288               	bcf	8,5	;volatile
  1121                           
  1122                           ;genie_en_herbe.c: 212: RD6 = 0;
  1123  0175  1308               	bcf	8,6	;volatile
  1124                           
  1125                           ;genie_en_herbe.c: 213: RD7 = 0;
  1126  0176  1388               	bcf	8,7	;volatile
  1127                           
  1128                           ;genie_en_herbe.c: 214: uart_txStr("L'Equipe A a la main");
  1129  0177  3001               	movlw	(low ((STR_1-__stringbase)| (0+32768)))& (0+255)
  1130  0178  120A  118A  25EC  120A  118A  	fcall	_uart_txStr
  1131                           
  1132                           ;genie_en_herbe.c: 215: _delay((unsigned long)((3000)*(20e6/4000.0)));
  1133  017D  304D               	movlw	77
  1134  017E  00F5               	movwf	??_jdk1+2
  1135  017F  3019               	movlw	25
  1136  0180  00F4               	movwf	??_jdk1+1
  1137  0181  304F               	movlw	79
  1138  0182  00F3               	movwf	??_jdk1
  1139  0183                     u198_27:	
  1140  0183  0BF3               	decfsz	??_jdk1,f
  1141  0184  2983               	goto	u198_27
  1142  0185  0BF4               	decfsz	??_jdk1+1,f
  1143  0186  2983               	goto	u198_27
  1144  0187  0BF5               	decfsz	??_jdk1+2,f
  1145  0188  2983               	goto	u198_27
  1146  0189  298A               	nop2
  1147                           
  1148                           ;genie_en_herbe.c: 216: RD3 = 0;
  1149  018A  1283               	bcf	3,5	;RP0=0, select bank0
  1150  018B  1303               	bcf	3,6	;RP1=0, select bank0
  1151  018C  1188               	bcf	8,3	;volatile
  1152                           
  1153                           ;genie_en_herbe.c: 217: phase = 3;
  1154  018D  3003               	movlw	3
  1155  018E  00FC               	movwf	_phase
  1156  018F  3000               	movlw	0
  1157  0190  00FD               	movwf	_phase+1
  1158                           
  1159                           ;genie_en_herbe.c: 218: _delay((unsigned long)((4000)*(20e6/4000.0)));
  1160  0191  3066               	movlw	102
  1161  0192  00F5               	movwf	??_jdk1+2
  1162  0193  3076               	movlw	118
  1163  0194  00F4               	movwf	??_jdk1+1
  1164  0195  30C1               	movlw	193
  1165  0196  00F3               	movwf	??_jdk1
  1166  0197                     u199_27:	
  1167  0197  0BF3               	decfsz	??_jdk1,f
  1168  0198  2997               	goto	u199_27
  1169  0199  0BF4               	decfsz	??_jdk1+1,f
  1170  019A  2997               	goto	u199_27
  1171  019B  0BF5               	decfsz	??_jdk1+2,f
  1172  019C  2997               	goto	u199_27
  1173                           
  1174                           ;genie_en_herbe.c: 219: if (RCREG == 'I') {
  1175  019D  3049               	movlw	73
  1176  019E  1283               	bcf	3,5	;RP0=0, select bank0
  1177  019F  1303               	bcf	3,6	;RP1=0, select bank0
  1178  01A0  061A               	xorwf	26,w	;volatile
  1179  01A1  1D03               	btfss	3,2
  1180  01A2  29A6               	goto	i1l1394
  1181                           
  1182                           ;genie_en_herbe.c: 220: phase = 0;
  1183  01A3  01FC               	clrf	_phase
  1184  01A4  01FD               	clrf	_phase+1
  1185                           
  1186                           ;genie_en_herbe.c: 221: } else {
  1187  01A5  29B0               	goto	i1l1398
  1188  01A6                     i1l1394:	
  1189                           
  1190                           ;genie_en_herbe.c: 222: phase = 3;
  1191  01A6  3003               	movlw	3
  1192  01A7  00FC               	movwf	_phase
  1193  01A8  3000               	movlw	0
  1194  01A9  00FD               	movwf	_phase+1
  1195                           
  1196                           ;genie_en_herbe.c: 223: uart_txStr("L'Equipe B a la main");
  1197  01AA  3016               	movlw	(low ((STR_2-__stringbase)| (0+32768)))& (0+255)
  1198  01AB  120A  118A  25EC  120A  118A  	fcall	_uart_txStr
  1199  01B0                     i1l1398:	
  1200  01B0  1283               	bcf	3,5	;RP0=0, select bank0
  1201  01B1  1303               	bcf	3,6	;RP1=0, select bank0
  1202  01B2  1986               	btfsc	6,3	;volatile
  1203  01B3  29FF               	goto	i1l1422
  1204  01B4  087C               	movf	_phase,w
  1205  01B5  047D               	iorwf	_phase+1,w
  1206  01B6  1903               	btfsc	3,2
  1207  01B7  296F               	goto	i1l155
  1208  01B8  3002               	movlw	2
  1209  01B9  067C               	xorwf	_phase,w
  1210  01BA  047D               	iorwf	_phase+1,w
  1211  01BB  1D03               	btfss	3,2
  1212  01BC  29FF               	goto	i1l1422
  1213  01BD  296F               	goto	i1l155
  1214  01BE                     i1l162:	
  1215                           ;genie_en_herbe.c: 224: }
  1216                           ;genie_en_herbe.c: 225: }
  1217                           ;genie_en_herbe.c: 226: while (RB4 == 0 && (phase == 0 || phase == 1)) {
  1218                           
  1219                           
  1220                           ;genie_en_herbe.c: 227: RD4 = 1;
  1221  01BE  1608               	bsf	8,4	;volatile
  1222                           
  1223                           ;genie_en_herbe.c: 228: RD0 = 0;
  1224  01BF  1008               	bcf	8,0	;volatile
  1225                           
  1226                           ;genie_en_herbe.c: 229: RD1 = 0;
  1227  01C0  1088               	bcf	8,1	;volatile
  1228                           
  1229                           ;genie_en_herbe.c: 230: RD2 = 0;
  1230  01C1  1108               	bcf	8,2	;volatile
  1231                           
  1232                           ;genie_en_herbe.c: 231: RD3 = 0;
  1233  01C2  1188               	bcf	8,3	;volatile
  1234                           
  1235                           ;genie_en_herbe.c: 232: RD5 = 0;
  1236  01C3  1288               	bcf	8,5	;volatile
  1237                           
  1238                           ;genie_en_herbe.c: 233: RD6 = 0;
  1239  01C4  1308               	bcf	8,6	;volatile
  1240                           
  1241                           ;genie_en_herbe.c: 234: RD7 = 0;
  1242  01C5  1388               	bcf	8,7	;volatile
  1243                           
  1244                           ;genie_en_herbe.c: 235: uart_txStr("L'Equipe B a la main");
  1245  01C6  3016               	movlw	(low ((STR_2-__stringbase)| (0+32768)))& (0+255)
  1246  01C7  120A  118A  25EC  120A  118A  	fcall	_uart_txStr
  1247                           
  1248                           ;genie_en_herbe.c: 236: _delay((unsigned long)((3000)*(20e6/4000.0)));
  1249  01CC  304D               	movlw	77
  1250  01CD  00F5               	movwf	??_jdk1+2
  1251  01CE  3019               	movlw	25
  1252  01CF  00F4               	movwf	??_jdk1+1
  1253  01D0  304F               	movlw	79
  1254  01D1  00F3               	movwf	??_jdk1
  1255  01D2                     u200_27:	
  1256  01D2  0BF3               	decfsz	??_jdk1,f
  1257  01D3  29D2               	goto	u200_27
  1258  01D4  0BF4               	decfsz	??_jdk1+1,f
  1259  01D5  29D2               	goto	u200_27
  1260  01D6  0BF5               	decfsz	??_jdk1+2,f
  1261  01D7  29D2               	goto	u200_27
  1262  01D8  29D9               	nop2
  1263                           
  1264                           ;genie_en_herbe.c: 237: RD4 = 0;
  1265  01D9  1283               	bcf	3,5	;RP0=0, select bank0
  1266  01DA  1303               	bcf	3,6	;RP1=0, select bank0
  1267  01DB  1208               	bcf	8,4	;volatile
  1268                           
  1269                           ;genie_en_herbe.c: 238: phase = 3;
  1270  01DC  3003               	movlw	3
  1271  01DD  00FC               	movwf	_phase
  1272  01DE  3000               	movlw	0
  1273  01DF  00FD               	movwf	_phase+1
  1274                           
  1275                           ;genie_en_herbe.c: 239: _delay((unsigned long)((4000)*(20e6/4000.0)));
  1276  01E0  3066               	movlw	102
  1277  01E1  00F5               	movwf	??_jdk1+2
  1278  01E2  3076               	movlw	118
  1279  01E3  00F4               	movwf	??_jdk1+1
  1280  01E4  30C1               	movlw	193
  1281  01E5  00F3               	movwf	??_jdk1
  1282  01E6                     u201_27:	
  1283  01E6  0BF3               	decfsz	??_jdk1,f
  1284  01E7  29E6               	goto	u201_27
  1285  01E8  0BF4               	decfsz	??_jdk1+1,f
  1286  01E9  29E6               	goto	u201_27
  1287  01EA  0BF5               	decfsz	??_jdk1+2,f
  1288  01EB  29E6               	goto	u201_27
  1289                           
  1290                           ;genie_en_herbe.c: 240: if (RCREG == 'I') {
  1291  01EC  3049               	movlw	73
  1292  01ED  1283               	bcf	3,5	;RP0=0, select bank0
  1293  01EE  1303               	bcf	3,6	;RP1=0, select bank0
  1294  01EF  061A               	xorwf	26,w	;volatile
  1295  01F0  1D03               	btfss	3,2
  1296  01F1  29F5               	goto	i1l1418
  1297                           
  1298                           ;genie_en_herbe.c: 241: phase = 0;
  1299  01F2  01FC               	clrf	_phase
  1300  01F3  01FD               	clrf	_phase+1
  1301                           
  1302                           ;genie_en_herbe.c: 242: } else {
  1303  01F4  29FF               	goto	i1l1422
  1304  01F5                     i1l1418:	
  1305                           
  1306                           ;genie_en_herbe.c: 243: phase = 3;
  1307  01F5  3003               	movlw	3
  1308  01F6  00FC               	movwf	_phase
  1309  01F7  3000               	movlw	0
  1310  01F8  00FD               	movwf	_phase+1
  1311                           
  1312                           ;genie_en_herbe.c: 244: uart_txStr("L'Equipe A a la main");
  1313  01F9  3001               	movlw	(low ((STR_1-__stringbase)| (0+32768)))& (0+255)
  1314  01FA  120A  118A  25EC  120A  118A  	fcall	_uart_txStr
  1315  01FF                     i1l1422:	
  1316  01FF  1283               	bcf	3,5	;RP0=0, select bank0
  1317  0200  1303               	bcf	3,6	;RP1=0, select bank0
  1318  0201  1A06               	btfsc	6,4	;volatile
  1319  0202  2A4D               	goto	i1l1446
  1320  0203  087C               	movf	_phase,w
  1321  0204  047D               	iorwf	_phase+1,w
  1322  0205  1903               	btfsc	3,2
  1323  0206  29BE               	goto	i1l162
  1324  0207  037C               	decf	_phase,w
  1325  0208  047D               	iorwf	_phase+1,w
  1326  0209  1D03               	btfss	3,2
  1327  020A  2A4D               	goto	i1l1446
  1328  020B  29BE               	goto	i1l162
  1329  020C                     i1l169:	
  1330                           ;genie_en_herbe.c: 245: }
  1331                           ;genie_en_herbe.c: 246: }
  1332                           ;genie_en_herbe.c: 247: while (RB5 == 0 && (phase == 0 || phase == 1)) {
  1333                           
  1334                           
  1335                           ;genie_en_herbe.c: 248: RD5 = 1;
  1336  020C  1688               	bsf	8,5	;volatile
  1337                           
  1338                           ;genie_en_herbe.c: 249: RD0 = 0;
  1339  020D  1008               	bcf	8,0	;volatile
  1340                           
  1341                           ;genie_en_herbe.c: 250: RD1 = 0;
  1342  020E  1088               	bcf	8,1	;volatile
  1343                           
  1344                           ;genie_en_herbe.c: 251: RD2 = 0;
  1345  020F  1108               	bcf	8,2	;volatile
  1346                           
  1347                           ;genie_en_herbe.c: 252: RD3 = 0;
  1348  0210  1188               	bcf	8,3	;volatile
  1349                           
  1350                           ;genie_en_herbe.c: 253: RD4 = 0;
  1351  0211  1208               	bcf	8,4	;volatile
  1352                           
  1353                           ;genie_en_herbe.c: 254: RD6 = 0;
  1354  0212  1308               	bcf	8,6	;volatile
  1355                           
  1356                           ;genie_en_herbe.c: 255: RD7 = 0;
  1357  0213  1388               	bcf	8,7	;volatile
  1358                           
  1359                           ;genie_en_herbe.c: 256: uart_txStr("L'Equipe B a la main");
  1360  0214  3016               	movlw	(low ((STR_2-__stringbase)| (0+32768)))& (0+255)
  1361  0215  120A  118A  25EC  120A  118A  	fcall	_uart_txStr
  1362                           
  1363                           ;genie_en_herbe.c: 257: _delay((unsigned long)((3000)*(20e6/4000.0)));
  1364  021A  304D               	movlw	77
  1365  021B  00F5               	movwf	??_jdk1+2
  1366  021C  3019               	movlw	25
  1367  021D  00F4               	movwf	??_jdk1+1
  1368  021E  304F               	movlw	79
  1369  021F  00F3               	movwf	??_jdk1
  1370  0220                     u202_27:	
  1371  0220  0BF3               	decfsz	??_jdk1,f
  1372  0221  2A20               	goto	u202_27
  1373  0222  0BF4               	decfsz	??_jdk1+1,f
  1374  0223  2A20               	goto	u202_27
  1375  0224  0BF5               	decfsz	??_jdk1+2,f
  1376  0225  2A20               	goto	u202_27
  1377  0226  2A27               	nop2
  1378                           
  1379                           ;genie_en_herbe.c: 258: RD5 = 0;
  1380  0227  1283               	bcf	3,5	;RP0=0, select bank0
  1381  0228  1303               	bcf	3,6	;RP1=0, select bank0
  1382  0229  1288               	bcf	8,5	;volatile
  1383                           
  1384                           ;genie_en_herbe.c: 259: phase = 3;
  1385  022A  3003               	movlw	3
  1386  022B  00FC               	movwf	_phase
  1387  022C  3000               	movlw	0
  1388  022D  00FD               	movwf	_phase+1
  1389                           
  1390                           ;genie_en_herbe.c: 260: _delay((unsigned long)((4000)*(20e6/4000.0)));
  1391  022E  3066               	movlw	102
  1392  022F  00F5               	movwf	??_jdk1+2
  1393  0230  3076               	movlw	118
  1394  0231  00F4               	movwf	??_jdk1+1
  1395  0232  30C1               	movlw	193
  1396  0233  00F3               	movwf	??_jdk1
  1397  0234                     u203_27:	
  1398  0234  0BF3               	decfsz	??_jdk1,f
  1399  0235  2A34               	goto	u203_27
  1400  0236  0BF4               	decfsz	??_jdk1+1,f
  1401  0237  2A34               	goto	u203_27
  1402  0238  0BF5               	decfsz	??_jdk1+2,f
  1403  0239  2A34               	goto	u203_27
  1404                           
  1405                           ;genie_en_herbe.c: 261: if (RCREG == 'I') {
  1406  023A  3049               	movlw	73
  1407  023B  1283               	bcf	3,5	;RP0=0, select bank0
  1408  023C  1303               	bcf	3,6	;RP1=0, select bank0
  1409  023D  061A               	xorwf	26,w	;volatile
  1410  023E  1D03               	btfss	3,2
  1411  023F  2A43               	goto	i1l1442
  1412                           
  1413                           ;genie_en_herbe.c: 262: phase = 0;
  1414  0240  01FC               	clrf	_phase
  1415  0241  01FD               	clrf	_phase+1
  1416                           
  1417                           ;genie_en_herbe.c: 263: } else {
  1418  0242  2A4D               	goto	i1l1446
  1419  0243                     i1l1442:	
  1420                           
  1421                           ;genie_en_herbe.c: 264: phase = 3;
  1422  0243  3003               	movlw	3
  1423  0244  00FC               	movwf	_phase
  1424  0245  3000               	movlw	0
  1425  0246  00FD               	movwf	_phase+1
  1426                           
  1427                           ;genie_en_herbe.c: 265: uart_txStr("L'Equipe A a la main");
  1428  0247  3001               	movlw	(low ((STR_1-__stringbase)| (0+32768)))& (0+255)
  1429  0248  120A  118A  25EC  120A  118A  	fcall	_uart_txStr
  1430  024D                     i1l1446:	
  1431  024D  1283               	bcf	3,5	;RP0=0, select bank0
  1432  024E  1303               	bcf	3,6	;RP1=0, select bank0
  1433  024F  1A86               	btfsc	6,5	;volatile
  1434  0250  2A9B               	goto	i1l1470
  1435  0251  087C               	movf	_phase,w
  1436  0252  047D               	iorwf	_phase+1,w
  1437  0253  1903               	btfsc	3,2
  1438  0254  2A0C               	goto	i1l169
  1439  0255  037C               	decf	_phase,w
  1440  0256  047D               	iorwf	_phase+1,w
  1441  0257  1D03               	btfss	3,2
  1442  0258  2A9B               	goto	i1l1470
  1443  0259  2A0C               	goto	i1l169
  1444  025A                     i1l176:	
  1445                           ;genie_en_herbe.c: 266: }
  1446                           ;genie_en_herbe.c: 267: }
  1447                           ;genie_en_herbe.c: 268: while (RB6 == 0 && (phase == 0 || phase == 1)) {
  1448                           
  1449                           
  1450                           ;genie_en_herbe.c: 269: RD6 = 1;
  1451  025A  1708               	bsf	8,6	;volatile
  1452                           
  1453                           ;genie_en_herbe.c: 270: RD0 = 0;
  1454  025B  1008               	bcf	8,0	;volatile
  1455                           
  1456                           ;genie_en_herbe.c: 271: RD1 = 0;
  1457  025C  1088               	bcf	8,1	;volatile
  1458                           
  1459                           ;genie_en_herbe.c: 272: RD2 = 0;
  1460  025D  1108               	bcf	8,2	;volatile
  1461                           
  1462                           ;genie_en_herbe.c: 273: RD3 = 0;
  1463  025E  1188               	bcf	8,3	;volatile
  1464                           
  1465                           ;genie_en_herbe.c: 274: RD4 = 0;
  1466  025F  1208               	bcf	8,4	;volatile
  1467                           
  1468                           ;genie_en_herbe.c: 275: RD5 = 0;
  1469  0260  1288               	bcf	8,5	;volatile
  1470                           
  1471                           ;genie_en_herbe.c: 276: RD7 = 0;
  1472  0261  1388               	bcf	8,7	;volatile
  1473                           
  1474                           ;genie_en_herbe.c: 277: uart_txStr("L'Equipe B a la main");
  1475  0262  3016               	movlw	(low ((STR_2-__stringbase)| (0+32768)))& (0+255)
  1476  0263  120A  118A  25EC  120A  118A  	fcall	_uart_txStr
  1477                           
  1478                           ;genie_en_herbe.c: 278: _delay((unsigned long)((3000)*(20e6/4000.0)));
  1479  0268  304D               	movlw	77
  1480  0269  00F5               	movwf	??_jdk1+2
  1481  026A  3019               	movlw	25
  1482  026B  00F4               	movwf	??_jdk1+1
  1483  026C  304F               	movlw	79
  1484  026D  00F3               	movwf	??_jdk1
  1485  026E                     u204_27:	
  1486  026E  0BF3               	decfsz	??_jdk1,f
  1487  026F  2A6E               	goto	u204_27
  1488  0270  0BF4               	decfsz	??_jdk1+1,f
  1489  0271  2A6E               	goto	u204_27
  1490  0272  0BF5               	decfsz	??_jdk1+2,f
  1491  0273  2A6E               	goto	u204_27
  1492  0274  2A75               	nop2
  1493                           
  1494                           ;genie_en_herbe.c: 279: RD6 = 0;
  1495  0275  1283               	bcf	3,5	;RP0=0, select bank0
  1496  0276  1303               	bcf	3,6	;RP1=0, select bank0
  1497  0277  1308               	bcf	8,6	;volatile
  1498                           
  1499                           ;genie_en_herbe.c: 280: phase = 3;
  1500  0278  3003               	movlw	3
  1501  0279  00FC               	movwf	_phase
  1502  027A  3000               	movlw	0
  1503  027B  00FD               	movwf	_phase+1
  1504                           
  1505                           ;genie_en_herbe.c: 281: _delay((unsigned long)((4000)*(20e6/4000.0)));
  1506  027C  3066               	movlw	102
  1507  027D  00F5               	movwf	??_jdk1+2
  1508  027E  3076               	movlw	118
  1509  027F  00F4               	movwf	??_jdk1+1
  1510  0280  30C1               	movlw	193
  1511  0281  00F3               	movwf	??_jdk1
  1512  0282                     u205_27:	
  1513  0282  0BF3               	decfsz	??_jdk1,f
  1514  0283  2A82               	goto	u205_27
  1515  0284  0BF4               	decfsz	??_jdk1+1,f
  1516  0285  2A82               	goto	u205_27
  1517  0286  0BF5               	decfsz	??_jdk1+2,f
  1518  0287  2A82               	goto	u205_27
  1519                           
  1520                           ;genie_en_herbe.c: 282: if (RCREG == 'I') {
  1521  0288  3049               	movlw	73
  1522  0289  1283               	bcf	3,5	;RP0=0, select bank0
  1523  028A  1303               	bcf	3,6	;RP1=0, select bank0
  1524  028B  061A               	xorwf	26,w	;volatile
  1525  028C  1D03               	btfss	3,2
  1526  028D  2A91               	goto	i1l1466
  1527                           
  1528                           ;genie_en_herbe.c: 283: phase = 0;
  1529  028E  01FC               	clrf	_phase
  1530  028F  01FD               	clrf	_phase+1
  1531                           
  1532                           ;genie_en_herbe.c: 284: } else {
  1533  0290  2A9B               	goto	i1l1470
  1534  0291                     i1l1466:	
  1535                           
  1536                           ;genie_en_herbe.c: 285: phase = 3;
  1537  0291  3003               	movlw	3
  1538  0292  00FC               	movwf	_phase
  1539  0293  3000               	movlw	0
  1540  0294  00FD               	movwf	_phase+1
  1541                           
  1542                           ;genie_en_herbe.c: 286: uart_txStr("L'Equipe A a la main");
  1543  0295  3001               	movlw	(low ((STR_1-__stringbase)| (0+32768)))& (0+255)
  1544  0296  120A  118A  25EC  120A  118A  	fcall	_uart_txStr
  1545  029B                     i1l1470:	
  1546  029B  1283               	bcf	3,5	;RP0=0, select bank0
  1547  029C  1303               	bcf	3,6	;RP1=0, select bank0
  1548  029D  1B06               	btfsc	6,6	;volatile
  1549  029E  2AE9               	goto	i1l1494
  1550  029F  087C               	movf	_phase,w
  1551  02A0  047D               	iorwf	_phase+1,w
  1552  02A1  1903               	btfsc	3,2
  1553  02A2  2A5A               	goto	i1l176
  1554  02A3  037C               	decf	_phase,w
  1555  02A4  047D               	iorwf	_phase+1,w
  1556  02A5  1D03               	btfss	3,2
  1557  02A6  2AE9               	goto	i1l1494
  1558  02A7  2A5A               	goto	i1l176
  1559  02A8                     i1l183:	
  1560                           ;genie_en_herbe.c: 287: }
  1561                           ;genie_en_herbe.c: 288: }
  1562                           ;genie_en_herbe.c: 289: while (RB7 == 0 && (phase == 0 || phase == 1)) {
  1563                           
  1564                           
  1565                           ;genie_en_herbe.c: 290: RD7 = 1;
  1566  02A8  1788               	bsf	8,7	;volatile
  1567                           
  1568                           ;genie_en_herbe.c: 291: RD0 = 0;
  1569  02A9  1008               	bcf	8,0	;volatile
  1570                           
  1571                           ;genie_en_herbe.c: 292: RD1 = 0;
  1572  02AA  1088               	bcf	8,1	;volatile
  1573                           
  1574                           ;genie_en_herbe.c: 293: RD2 = 0;
  1575  02AB  1108               	bcf	8,2	;volatile
  1576                           
  1577                           ;genie_en_herbe.c: 294: RD3 = 0;
  1578  02AC  1188               	bcf	8,3	;volatile
  1579                           
  1580                           ;genie_en_herbe.c: 295: RD4 = 0;
  1581  02AD  1208               	bcf	8,4	;volatile
  1582                           
  1583                           ;genie_en_herbe.c: 296: RD5 = 0;
  1584  02AE  1288               	bcf	8,5	;volatile
  1585                           
  1586                           ;genie_en_herbe.c: 297: RD6 = 0;
  1587  02AF  1308               	bcf	8,6	;volatile
  1588                           
  1589                           ;genie_en_herbe.c: 298: uart_txStr("L'Equipe B a la main");
  1590  02B0  3016               	movlw	(low ((STR_2-__stringbase)| (0+32768)))& (0+255)
  1591  02B1  120A  118A  25EC  120A  118A  	fcall	_uart_txStr
  1592                           
  1593                           ;genie_en_herbe.c: 299: _delay((unsigned long)((3000)*(20e6/4000.0)));
  1594  02B6  304D               	movlw	77
  1595  02B7  00F5               	movwf	??_jdk1+2
  1596  02B8  3019               	movlw	25
  1597  02B9  00F4               	movwf	??_jdk1+1
  1598  02BA  304F               	movlw	79
  1599  02BB  00F3               	movwf	??_jdk1
  1600  02BC                     u206_27:	
  1601  02BC  0BF3               	decfsz	??_jdk1,f
  1602  02BD  2ABC               	goto	u206_27
  1603  02BE  0BF4               	decfsz	??_jdk1+1,f
  1604  02BF  2ABC               	goto	u206_27
  1605  02C0  0BF5               	decfsz	??_jdk1+2,f
  1606  02C1  2ABC               	goto	u206_27
  1607  02C2  2AC3               	nop2
  1608                           
  1609                           ;genie_en_herbe.c: 300: RD7 = 0;
  1610  02C3  1283               	bcf	3,5	;RP0=0, select bank0
  1611  02C4  1303               	bcf	3,6	;RP1=0, select bank0
  1612  02C5  1388               	bcf	8,7	;volatile
  1613                           
  1614                           ;genie_en_herbe.c: 301: phase = 3;
  1615  02C6  3003               	movlw	3
  1616  02C7  00FC               	movwf	_phase
  1617  02C8  3000               	movlw	0
  1618  02C9  00FD               	movwf	_phase+1
  1619                           
  1620                           ;genie_en_herbe.c: 302: _delay((unsigned long)((4000)*(20e6/4000.0)));
  1621  02CA  3066               	movlw	102
  1622  02CB  00F5               	movwf	??_jdk1+2
  1623  02CC  3076               	movlw	118
  1624  02CD  00F4               	movwf	??_jdk1+1
  1625  02CE  30C1               	movlw	193
  1626  02CF  00F3               	movwf	??_jdk1
  1627  02D0                     u207_27:	
  1628  02D0  0BF3               	decfsz	??_jdk1,f
  1629  02D1  2AD0               	goto	u207_27
  1630  02D2  0BF4               	decfsz	??_jdk1+1,f
  1631  02D3  2AD0               	goto	u207_27
  1632  02D4  0BF5               	decfsz	??_jdk1+2,f
  1633  02D5  2AD0               	goto	u207_27
  1634                           
  1635                           ;genie_en_herbe.c: 303: if (RCREG == 'I') {
  1636  02D6  3049               	movlw	73
  1637  02D7  1283               	bcf	3,5	;RP0=0, select bank0
  1638  02D8  1303               	bcf	3,6	;RP1=0, select bank0
  1639  02D9  061A               	xorwf	26,w	;volatile
  1640  02DA  1D03               	btfss	3,2
  1641  02DB  2ADF               	goto	i1l1490
  1642                           
  1643                           ;genie_en_herbe.c: 304: phase = 0;
  1644  02DC  01FC               	clrf	_phase
  1645  02DD  01FD               	clrf	_phase+1
  1646                           
  1647                           ;genie_en_herbe.c: 305: } else {
  1648  02DE  2AE9               	goto	i1l1494
  1649  02DF                     i1l1490:	
  1650                           
  1651                           ;genie_en_herbe.c: 306: phase = 3;
  1652  02DF  3003               	movlw	3
  1653  02E0  00FC               	movwf	_phase
  1654  02E1  3000               	movlw	0
  1655  02E2  00FD               	movwf	_phase+1
  1656                           
  1657                           ;genie_en_herbe.c: 307: uart_txStr("L'Equipe A a la main");
  1658  02E3  3001               	movlw	(low ((STR_1-__stringbase)| (0+32768)))& (0+255)
  1659  02E4  120A  118A  25EC  120A  118A  	fcall	_uart_txStr
  1660  02E9                     i1l1494:	
  1661  02E9  1283               	bcf	3,5	;RP0=0, select bank0
  1662  02EA  1303               	bcf	3,6	;RP1=0, select bank0
  1663  02EB  1B86               	btfsc	6,7	;volatile
  1664  02EC  2AF5               	goto	i1l1500
  1665  02ED  087C               	movf	_phase,w
  1666  02EE  047D               	iorwf	_phase+1,w
  1667  02EF  1903               	btfsc	3,2
  1668  02F0  2AA8               	goto	i1l183
  1669  02F1  037C               	decf	_phase,w
  1670  02F2  047D               	iorwf	_phase+1,w
  1671  02F3  1903               	btfsc	3,2
  1672  02F4  2AA8               	goto	i1l183
  1673  02F5                     i1l1500:	
  1674  02F5  037A               	decf	_etape,w
  1675  02F6  047B               	iorwf	_etape+1,w
  1676  02F7  1D03               	btfss	3,2
  1677  02F8  2C45               	goto	i1l1582
  1678  02F9  28C3               	goto	i1l1326
  1679  02FA                     i1l191:	
  1680                           ;genie_en_herbe.c: 308: }
  1681                           ;genie_en_herbe.c: 309: }
  1682                           ;genie_en_herbe.c: 311: }
  1683                           ;genie_en_herbe.c: 312: while (etape == 2) {
  1684                           
  1685                           
  1686                           ;genie_en_herbe.c: 313: if (RB0 == 0 && (phase == 0 || phase == 2)) {
  1687  02FA  1806               	btfsc	6,0	;volatile
  1688  02FB  2B24               	goto	i1l192
  1689  02FC  087C               	movf	_phase,w
  1690  02FD  047D               	iorwf	_phase+1,w
  1691  02FE  1903               	btfsc	3,2
  1692  02FF  2B05               	goto	i1l194
  1693  0300  3002               	movlw	2
  1694  0301  067C               	xorwf	_phase,w
  1695  0302  047D               	iorwf	_phase+1,w
  1696  0303  1D03               	btfss	3,2
  1697  0304  2B24               	goto	i1l192
  1698  0305                     i1l194:	
  1699                           
  1700                           ;genie_en_herbe.c: 314: RD0 = 1;
  1701  0305  1408               	bsf	8,0	;volatile
  1702                           
  1703                           ;genie_en_herbe.c: 315: RD1 = 0;
  1704  0306  1088               	bcf	8,1	;volatile
  1705                           
  1706                           ;genie_en_herbe.c: 316: RD2 = 0;
  1707  0307  1108               	bcf	8,2	;volatile
  1708                           
  1709                           ;genie_en_herbe.c: 317: RD3 = 0;
  1710  0308  1188               	bcf	8,3	;volatile
  1711                           
  1712                           ;genie_en_herbe.c: 318: RD4 = 0;
  1713  0309  1208               	bcf	8,4	;volatile
  1714                           
  1715                           ;genie_en_herbe.c: 319: RD5 = 0;
  1716  030A  1288               	bcf	8,5	;volatile
  1717                           
  1718                           ;genie_en_herbe.c: 320: RD6 = 0;
  1719  030B  1308               	bcf	8,6	;volatile
  1720                           
  1721                           ;genie_en_herbe.c: 321: RD7 = 0;
  1722  030C  1388               	bcf	8,7	;volatile
  1723                           
  1724                           ;genie_en_herbe.c: 322: uart_txStr("L'Equipe A a la main");
  1725  030D  3001               	movlw	(low ((STR_1-__stringbase)| (0+32768)))& (0+255)
  1726  030E  120A  118A  25EC  120A  118A  	fcall	_uart_txStr
  1727                           
  1728                           ;genie_en_herbe.c: 323: _delay((unsigned long)((6000)*(20e6/4000.0)));
  1729  0313  3099               	movlw	153
  1730  0314  00F5               	movwf	??_jdk1+2
  1731  0315  3031               	movlw	49
  1732  0316  00F4               	movwf	??_jdk1+1
  1733  0317  30A2               	movlw	162
  1734  0318  00F3               	movwf	??_jdk1
  1735  0319                     u208_27:	
  1736  0319  0BF3               	decfsz	??_jdk1,f
  1737  031A  2B19               	goto	u208_27
  1738  031B  0BF4               	decfsz	??_jdk1+1,f
  1739  031C  2B19               	goto	u208_27
  1740  031D  0BF5               	decfsz	??_jdk1+2,f
  1741  031E  2B19               	goto	u208_27
  1742  031F  0000               	nop
  1743                           
  1744                           ;genie_en_herbe.c: 324: RD0 = 0;
  1745  0320  1283               	bcf	3,5	;RP0=0, select bank0
  1746  0321  1303               	bcf	3,6	;RP1=0, select bank0
  1747  0322  1008               	bcf	8,0	;volatile
  1748                           
  1749                           ;genie_en_herbe.c: 325: } else if (RB1 == 0 && (phase == 0 || phase == 2)) {
  1750  0323  2C45               	goto	i1l1582
  1751  0324                     i1l192:	
  1752  0324  1886               	btfsc	6,1	;volatile
  1753  0325  2B4E               	goto	i1l196
  1754  0326  087C               	movf	_phase,w
  1755  0327  047D               	iorwf	_phase+1,w
  1756  0328  1903               	btfsc	3,2
  1757  0329  2B2F               	goto	i1l198
  1758  032A  3002               	movlw	2
  1759  032B  067C               	xorwf	_phase,w
  1760  032C  047D               	iorwf	_phase+1,w
  1761  032D  1D03               	btfss	3,2
  1762  032E  2B4E               	goto	i1l196
  1763  032F                     i1l198:	
  1764                           
  1765                           ;genie_en_herbe.c: 326: RD1 = 1;
  1766  032F  1488               	bsf	8,1	;volatile
  1767                           
  1768                           ;genie_en_herbe.c: 327: RD0 = 0;
  1769  0330  1008               	bcf	8,0	;volatile
  1770                           
  1771                           ;genie_en_herbe.c: 328: RD2 = 0;
  1772  0331  1108               	bcf	8,2	;volatile
  1773                           
  1774                           ;genie_en_herbe.c: 329: RD3 = 0;
  1775  0332  1188               	bcf	8,3	;volatile
  1776                           
  1777                           ;genie_en_herbe.c: 330: RD4 = 0;
  1778  0333  1208               	bcf	8,4	;volatile
  1779                           
  1780                           ;genie_en_herbe.c: 331: RD5 = 0;
  1781  0334  1288               	bcf	8,5	;volatile
  1782                           
  1783                           ;genie_en_herbe.c: 332: RD6 = 0;
  1784  0335  1308               	bcf	8,6	;volatile
  1785                           
  1786                           ;genie_en_herbe.c: 333: RD7 = 0;
  1787  0336  1388               	bcf	8,7	;volatile
  1788                           
  1789                           ;genie_en_herbe.c: 334: uart_txStr("L'Equipe A a la main");
  1790  0337  3001               	movlw	(low ((STR_1-__stringbase)| (0+32768)))& (0+255)
  1791  0338  120A  118A  25EC  120A  118A  	fcall	_uart_txStr
  1792                           
  1793                           ;genie_en_herbe.c: 335: _delay((unsigned long)((6000)*(20e6/4000.0)));
  1794  033D  3099               	movlw	153
  1795  033E  00F5               	movwf	??_jdk1+2
  1796  033F  3031               	movlw	49
  1797  0340  00F4               	movwf	??_jdk1+1
  1798  0341  30A2               	movlw	162
  1799  0342  00F3               	movwf	??_jdk1
  1800  0343                     u209_27:	
  1801  0343  0BF3               	decfsz	??_jdk1,f
  1802  0344  2B43               	goto	u209_27
  1803  0345  0BF4               	decfsz	??_jdk1+1,f
  1804  0346  2B43               	goto	u209_27
  1805  0347  0BF5               	decfsz	??_jdk1+2,f
  1806  0348  2B43               	goto	u209_27
  1807  0349  0000               	nop
  1808                           
  1809                           ;genie_en_herbe.c: 336: RD1 = 0;
  1810  034A  1283               	bcf	3,5	;RP0=0, select bank0
  1811  034B  1303               	bcf	3,6	;RP1=0, select bank0
  1812  034C  1088               	bcf	8,1	;volatile
  1813                           
  1814                           ;genie_en_herbe.c: 337: } else if (RB2 == 0 && (phase == 0 || phase == 2)) {
  1815  034D  2C45               	goto	i1l1582
  1816  034E                     i1l196:	
  1817  034E  1906               	btfsc	6,2	;volatile
  1818  034F  2B78               	goto	i1l200
  1819  0350  087C               	movf	_phase,w
  1820  0351  047D               	iorwf	_phase+1,w
  1821  0352  1903               	btfsc	3,2
  1822  0353  2B59               	goto	i1l202
  1823  0354  3002               	movlw	2
  1824  0355  067C               	xorwf	_phase,w
  1825  0356  047D               	iorwf	_phase+1,w
  1826  0357  1D03               	btfss	3,2
  1827  0358  2B78               	goto	i1l200
  1828  0359                     i1l202:	
  1829                           
  1830                           ;genie_en_herbe.c: 338: RD2 = 1;
  1831  0359  1508               	bsf	8,2	;volatile
  1832                           
  1833                           ;genie_en_herbe.c: 339: RD0 = 0;
  1834  035A  1008               	bcf	8,0	;volatile
  1835                           
  1836                           ;genie_en_herbe.c: 340: RD1 = 0;
  1837  035B  1088               	bcf	8,1	;volatile
  1838                           
  1839                           ;genie_en_herbe.c: 341: RD3 = 0;
  1840  035C  1188               	bcf	8,3	;volatile
  1841                           
  1842                           ;genie_en_herbe.c: 342: RD4 = 0;
  1843  035D  1208               	bcf	8,4	;volatile
  1844                           
  1845                           ;genie_en_herbe.c: 343: RD5 = 0;
  1846  035E  1288               	bcf	8,5	;volatile
  1847                           
  1848                           ;genie_en_herbe.c: 344: RD6 = 0;
  1849  035F  1308               	bcf	8,6	;volatile
  1850                           
  1851                           ;genie_en_herbe.c: 345: RD7 = 0;
  1852  0360  1388               	bcf	8,7	;volatile
  1853                           
  1854                           ;genie_en_herbe.c: 346: uart_txStr("L'Equipe A a la main");
  1855  0361  3001               	movlw	(low ((STR_1-__stringbase)| (0+32768)))& (0+255)
  1856  0362  120A  118A  25EC  120A  118A  	fcall	_uart_txStr
  1857                           
  1858                           ;genie_en_herbe.c: 347: _delay((unsigned long)((6000)*(20e6/4000.0)));
  1859  0367  3099               	movlw	153
  1860  0368  00F5               	movwf	??_jdk1+2
  1861  0369  3031               	movlw	49
  1862  036A  00F4               	movwf	??_jdk1+1
  1863  036B  30A2               	movlw	162
  1864  036C  00F3               	movwf	??_jdk1
  1865  036D                     u210_27:	
  1866  036D  0BF3               	decfsz	??_jdk1,f
  1867  036E  2B6D               	goto	u210_27
  1868  036F  0BF4               	decfsz	??_jdk1+1,f
  1869  0370  2B6D               	goto	u210_27
  1870  0371  0BF5               	decfsz	??_jdk1+2,f
  1871  0372  2B6D               	goto	u210_27
  1872  0373  0000               	nop
  1873                           
  1874                           ;genie_en_herbe.c: 348: RD2 = 0;
  1875  0374  1283               	bcf	3,5	;RP0=0, select bank0
  1876  0375  1303               	bcf	3,6	;RP1=0, select bank0
  1877  0376  1108               	bcf	8,2	;volatile
  1878                           
  1879                           ;genie_en_herbe.c: 350: } else if (RB3 == 0 && (phase == 0 || phase == 2)) {
  1880  0377  2C45               	goto	i1l1582
  1881  0378                     i1l200:	
  1882  0378  1986               	btfsc	6,3	;volatile
  1883  0379  2BA2               	goto	i1l204
  1884  037A  087C               	movf	_phase,w
  1885  037B  047D               	iorwf	_phase+1,w
  1886  037C  1903               	btfsc	3,2
  1887  037D  2B83               	goto	i1l206
  1888  037E  3002               	movlw	2
  1889  037F  067C               	xorwf	_phase,w
  1890  0380  047D               	iorwf	_phase+1,w
  1891  0381  1D03               	btfss	3,2
  1892  0382  2BA2               	goto	i1l204
  1893  0383                     i1l206:	
  1894                           
  1895                           ;genie_en_herbe.c: 351: RD3 = 1;
  1896  0383  1588               	bsf	8,3	;volatile
  1897                           
  1898                           ;genie_en_herbe.c: 352: RD0 = 0;
  1899  0384  1008               	bcf	8,0	;volatile
  1900                           
  1901                           ;genie_en_herbe.c: 353: RD1 = 0;
  1902  0385  1088               	bcf	8,1	;volatile
  1903                           
  1904                           ;genie_en_herbe.c: 354: RD2 = 0;
  1905  0386  1108               	bcf	8,2	;volatile
  1906                           
  1907                           ;genie_en_herbe.c: 355: RD4 = 0;
  1908  0387  1208               	bcf	8,4	;volatile
  1909                           
  1910                           ;genie_en_herbe.c: 356: RD5 = 0;
  1911  0388  1288               	bcf	8,5	;volatile
  1912                           
  1913                           ;genie_en_herbe.c: 357: RD6 = 0;
  1914  0389  1308               	bcf	8,6	;volatile
  1915                           
  1916                           ;genie_en_herbe.c: 358: RD7 = 0;
  1917  038A  1388               	bcf	8,7	;volatile
  1918                           
  1919                           ;genie_en_herbe.c: 359: uart_txStr("L'Equipe A a la main");
  1920  038B  3001               	movlw	(low ((STR_1-__stringbase)| (0+32768)))& (0+255)
  1921  038C  120A  118A  25EC  120A  118A  	fcall	_uart_txStr
  1922                           
  1923                           ;genie_en_herbe.c: 360: _delay((unsigned long)((6000)*(20e6/4000.0)));
  1924  0391  3099               	movlw	153
  1925  0392  00F5               	movwf	??_jdk1+2
  1926  0393  3031               	movlw	49
  1927  0394  00F4               	movwf	??_jdk1+1
  1928  0395  30A2               	movlw	162
  1929  0396  00F3               	movwf	??_jdk1
  1930  0397                     u211_27:	
  1931  0397  0BF3               	decfsz	??_jdk1,f
  1932  0398  2B97               	goto	u211_27
  1933  0399  0BF4               	decfsz	??_jdk1+1,f
  1934  039A  2B97               	goto	u211_27
  1935  039B  0BF5               	decfsz	??_jdk1+2,f
  1936  039C  2B97               	goto	u211_27
  1937  039D  0000               	nop
  1938                           
  1939                           ;genie_en_herbe.c: 361: RD3 = 0;
  1940  039E  1283               	bcf	3,5	;RP0=0, select bank0
  1941  039F  1303               	bcf	3,6	;RP1=0, select bank0
  1942  03A0  1188               	bcf	8,3	;volatile
  1943                           
  1944                           ;genie_en_herbe.c: 362: } else if (RB4 == 0 && (phase == 0 || phase == 1)) {
  1945  03A1  2C45               	goto	i1l1582
  1946  03A2                     i1l204:	
  1947  03A2  1A06               	btfsc	6,4	;volatile
  1948  03A3  2BCB               	goto	i1l208
  1949  03A4  087C               	movf	_phase,w
  1950  03A5  047D               	iorwf	_phase+1,w
  1951  03A6  1903               	btfsc	3,2
  1952  03A7  2BAC               	goto	i1l210
  1953  03A8  037C               	decf	_phase,w
  1954  03A9  047D               	iorwf	_phase+1,w
  1955  03AA  1D03               	btfss	3,2
  1956  03AB  2BCB               	goto	i1l208
  1957  03AC                     i1l210:	
  1958                           
  1959                           ;genie_en_herbe.c: 363: RD4 = 1;
  1960  03AC  1608               	bsf	8,4	;volatile
  1961                           
  1962                           ;genie_en_herbe.c: 364: RD0 = 0;
  1963  03AD  1008               	bcf	8,0	;volatile
  1964                           
  1965                           ;genie_en_herbe.c: 365: RD1 = 0;
  1966  03AE  1088               	bcf	8,1	;volatile
  1967                           
  1968                           ;genie_en_herbe.c: 366: RD2 = 0;
  1969  03AF  1108               	bcf	8,2	;volatile
  1970                           
  1971                           ;genie_en_herbe.c: 367: RD3 = 0;
  1972  03B0  1188               	bcf	8,3	;volatile
  1973                           
  1974                           ;genie_en_herbe.c: 368: RD5 = 0;
  1975  03B1  1288               	bcf	8,5	;volatile
  1976                           
  1977                           ;genie_en_herbe.c: 369: RD6 = 0;
  1978  03B2  1308               	bcf	8,6	;volatile
  1979                           
  1980                           ;genie_en_herbe.c: 370: RD7 = 0;
  1981  03B3  1388               	bcf	8,7	;volatile
  1982                           
  1983                           ;genie_en_herbe.c: 371: uart_txStr("L'Equipe B a la main");
  1984  03B4  3016               	movlw	(low ((STR_2-__stringbase)| (0+32768)))& (0+255)
  1985  03B5  120A  118A  25EC  120A  118A  	fcall	_uart_txStr
  1986                           
  1987                           ;genie_en_herbe.c: 372: _delay((unsigned long)((6000)*(20e6/4000.0)));
  1988  03BA  3099               	movlw	153
  1989  03BB  00F5               	movwf	??_jdk1+2
  1990  03BC  3031               	movlw	49
  1991  03BD  00F4               	movwf	??_jdk1+1
  1992  03BE  30A2               	movlw	162
  1993  03BF  00F3               	movwf	??_jdk1
  1994  03C0                     u212_27:	
  1995  03C0  0BF3               	decfsz	??_jdk1,f
  1996  03C1  2BC0               	goto	u212_27
  1997  03C2  0BF4               	decfsz	??_jdk1+1,f
  1998  03C3  2BC0               	goto	u212_27
  1999  03C4  0BF5               	decfsz	??_jdk1+2,f
  2000  03C5  2BC0               	goto	u212_27
  2001  03C6  0000               	nop
  2002                           
  2003                           ;genie_en_herbe.c: 373: RD4 = 0;
  2004  03C7  1283               	bcf	3,5	;RP0=0, select bank0
  2005  03C8  1303               	bcf	3,6	;RP1=0, select bank0
  2006  03C9  1208               	bcf	8,4	;volatile
  2007                           
  2008                           ;genie_en_herbe.c: 374: } else if (RB5 == 0 && (phase == 0 || phase == 1)) {
  2009  03CA  2C45               	goto	i1l1582
  2010  03CB                     i1l208:	
  2011  03CB  1A86               	btfsc	6,5	;volatile
  2012  03CC  2BF4               	goto	i1l212
  2013  03CD  087C               	movf	_phase,w
  2014  03CE  047D               	iorwf	_phase+1,w
  2015  03CF  1903               	btfsc	3,2
  2016  03D0  2BD5               	goto	i1l214
  2017  03D1  037C               	decf	_phase,w
  2018  03D2  047D               	iorwf	_phase+1,w
  2019  03D3  1D03               	btfss	3,2
  2020  03D4  2BF4               	goto	i1l212
  2021  03D5                     i1l214:	
  2022                           
  2023                           ;genie_en_herbe.c: 375: RD5 = 1;
  2024  03D5  1688               	bsf	8,5	;volatile
  2025                           
  2026                           ;genie_en_herbe.c: 376: RD0 = 0;
  2027  03D6  1008               	bcf	8,0	;volatile
  2028                           
  2029                           ;genie_en_herbe.c: 377: RD1 = 0;
  2030  03D7  1088               	bcf	8,1	;volatile
  2031                           
  2032                           ;genie_en_herbe.c: 378: RD2 = 0;
  2033  03D8  1108               	bcf	8,2	;volatile
  2034                           
  2035                           ;genie_en_herbe.c: 379: RD3 = 0;
  2036  03D9  1188               	bcf	8,3	;volatile
  2037                           
  2038                           ;genie_en_herbe.c: 380: RD4 = 0;
  2039  03DA  1208               	bcf	8,4	;volatile
  2040                           
  2041                           ;genie_en_herbe.c: 381: RD6 = 0;
  2042  03DB  1308               	bcf	8,6	;volatile
  2043                           
  2044                           ;genie_en_herbe.c: 382: RD7 = 0;
  2045  03DC  1388               	bcf	8,7	;volatile
  2046                           
  2047                           ;genie_en_herbe.c: 383: uart_txStr("L'Equipe B a la main");
  2048  03DD  3016               	movlw	(low ((STR_2-__stringbase)| (0+32768)))& (0+255)
  2049  03DE  120A  118A  25EC  120A  118A  	fcall	_uart_txStr
  2050                           
  2051                           ;genie_en_herbe.c: 384: _delay((unsigned long)((6000)*(20e6/4000.0)));
  2052  03E3  3099               	movlw	153
  2053  03E4  00F5               	movwf	??_jdk1+2
  2054  03E5  3031               	movlw	49
  2055  03E6  00F4               	movwf	??_jdk1+1
  2056  03E7  30A2               	movlw	162
  2057  03E8  00F3               	movwf	??_jdk1
  2058  03E9                     u213_27:	
  2059  03E9  0BF3               	decfsz	??_jdk1,f
  2060  03EA  2BE9               	goto	u213_27
  2061  03EB  0BF4               	decfsz	??_jdk1+1,f
  2062  03EC  2BE9               	goto	u213_27
  2063  03ED  0BF5               	decfsz	??_jdk1+2,f
  2064  03EE  2BE9               	goto	u213_27
  2065  03EF  0000               	nop
  2066                           
  2067                           ;genie_en_herbe.c: 385: RD5 = 0;
  2068  03F0  1283               	bcf	3,5	;RP0=0, select bank0
  2069  03F1  1303               	bcf	3,6	;RP1=0, select bank0
  2070  03F2  1288               	bcf	8,5	;volatile
  2071                           
  2072                           ;genie_en_herbe.c: 386: } else if (RB6 == 0 && (phase == 0 || phase == 1)) {
  2073  03F3  2C45               	goto	i1l1582
  2074  03F4                     i1l212:	
  2075  03F4  1B06               	btfsc	6,6	;volatile
  2076  03F5  2C1D               	goto	i1l216
  2077  03F6  087C               	movf	_phase,w
  2078  03F7  047D               	iorwf	_phase+1,w
  2079  03F8  1903               	btfsc	3,2
  2080  03F9  2BFE               	goto	i1l218
  2081  03FA  037C               	decf	_phase,w
  2082  03FB  047D               	iorwf	_phase+1,w
  2083  03FC  1D03               	btfss	3,2
  2084  03FD  2C1D               	goto	i1l216
  2085  03FE                     i1l218:	
  2086                           
  2087                           ;genie_en_herbe.c: 387: RD6 = 1;
  2088  03FE  1708               	bsf	8,6	;volatile
  2089                           
  2090                           ;genie_en_herbe.c: 388: RD0 = 0;
  2091  03FF  1008               	bcf	8,0	;volatile
  2092                           
  2093                           ;genie_en_herbe.c: 389: RD1 = 0;
  2094  0400  1088               	bcf	8,1	;volatile
  2095                           
  2096                           ;genie_en_herbe.c: 390: RD2 = 0;
  2097  0401  1108               	bcf	8,2	;volatile
  2098                           
  2099                           ;genie_en_herbe.c: 391: RD3 = 0;
  2100  0402  1188               	bcf	8,3	;volatile
  2101                           
  2102                           ;genie_en_herbe.c: 392: RD4 = 0;
  2103  0403  1208               	bcf	8,4	;volatile
  2104                           
  2105                           ;genie_en_herbe.c: 393: RD5 = 0;
  2106  0404  1288               	bcf	8,5	;volatile
  2107                           
  2108                           ;genie_en_herbe.c: 394: RD7 = 0;
  2109  0405  1388               	bcf	8,7	;volatile
  2110                           
  2111                           ;genie_en_herbe.c: 395: uart_txStr("L'Equipe B a la main");
  2112  0406  3016               	movlw	(low ((STR_2-__stringbase)| (0+32768)))& (0+255)
  2113  0407  120A  118A  25EC  120A  118A  	fcall	_uart_txStr
  2114                           
  2115                           ;genie_en_herbe.c: 396: _delay((unsigned long)((6000)*(20e6/4000.0)));
  2116  040C  3099               	movlw	153
  2117  040D  00F5               	movwf	??_jdk1+2
  2118  040E  3031               	movlw	49
  2119  040F  00F4               	movwf	??_jdk1+1
  2120  0410  30A2               	movlw	162
  2121  0411  00F3               	movwf	??_jdk1
  2122  0412                     u214_27:	
  2123  0412  0BF3               	decfsz	??_jdk1,f
  2124  0413  2C12               	goto	u214_27
  2125  0414  0BF4               	decfsz	??_jdk1+1,f
  2126  0415  2C12               	goto	u214_27
  2127  0416  0BF5               	decfsz	??_jdk1+2,f
  2128  0417  2C12               	goto	u214_27
  2129  0418  0000               	nop
  2130                           
  2131                           ;genie_en_herbe.c: 397: RD6 = 0;
  2132  0419  1283               	bcf	3,5	;RP0=0, select bank0
  2133  041A  1303               	bcf	3,6	;RP1=0, select bank0
  2134  041B  1308               	bcf	8,6	;volatile
  2135                           
  2136                           ;genie_en_herbe.c: 399: } else if (RB7 == 0 && (phase == 0 || phase == 1)) {
  2137  041C  2C45               	goto	i1l1582
  2138  041D                     i1l216:	
  2139  041D  1B86               	btfsc	6,7	;volatile
  2140  041E  2C45               	goto	i1l1582
  2141  041F  087C               	movf	_phase,w
  2142  0420  047D               	iorwf	_phase+1,w
  2143  0421  1903               	btfsc	3,2
  2144  0422  2C27               	goto	i1l222
  2145  0423  037C               	decf	_phase,w
  2146  0424  047D               	iorwf	_phase+1,w
  2147  0425  1D03               	btfss	3,2
  2148  0426  2C45               	goto	i1l1582
  2149  0427                     i1l222:	
  2150                           
  2151                           ;genie_en_herbe.c: 400: RD7 = 1;
  2152  0427  1788               	bsf	8,7	;volatile
  2153                           
  2154                           ;genie_en_herbe.c: 401: RD0 = 0;
  2155  0428  1008               	bcf	8,0	;volatile
  2156                           
  2157                           ;genie_en_herbe.c: 402: RD1 = 0;
  2158  0429  1088               	bcf	8,1	;volatile
  2159                           
  2160                           ;genie_en_herbe.c: 403: RD2 = 0;
  2161  042A  1108               	bcf	8,2	;volatile
  2162                           
  2163                           ;genie_en_herbe.c: 404: RD3 = 0;
  2164  042B  1188               	bcf	8,3	;volatile
  2165                           
  2166                           ;genie_en_herbe.c: 405: RD4 = 0;
  2167  042C  1208               	bcf	8,4	;volatile
  2168                           
  2169                           ;genie_en_herbe.c: 406: RD5 = 0;
  2170  042D  1288               	bcf	8,5	;volatile
  2171                           
  2172                           ;genie_en_herbe.c: 407: RD6 = 0;
  2173  042E  1308               	bcf	8,6	;volatile
  2174                           
  2175                           ;genie_en_herbe.c: 408: uart_txStr("L'Equipe B a la main");
  2176  042F  3016               	movlw	(low ((STR_2-__stringbase)| (0+32768)))& (0+255)
  2177  0430  120A  118A  25EC  120A  118A  	fcall	_uart_txStr
  2178                           
  2179                           ;genie_en_herbe.c: 409: _delay((unsigned long)((6000)*(20e6/4000.0)));
  2180  0435  3099               	movlw	153
  2181  0436  00F5               	movwf	??_jdk1+2
  2182  0437  3031               	movlw	49
  2183  0438  00F4               	movwf	??_jdk1+1
  2184  0439  30A2               	movlw	162
  2185  043A  00F3               	movwf	??_jdk1
  2186  043B                     u215_27:	
  2187  043B  0BF3               	decfsz	??_jdk1,f
  2188  043C  2C3B               	goto	u215_27
  2189  043D  0BF4               	decfsz	??_jdk1+1,f
  2190  043E  2C3B               	goto	u215_27
  2191  043F  0BF5               	decfsz	??_jdk1+2,f
  2192  0440  2C3B               	goto	u215_27
  2193  0441  0000               	nop
  2194                           
  2195                           ;genie_en_herbe.c: 410: RD7 = 0;
  2196  0442  1283               	bcf	3,5	;RP0=0, select bank0
  2197  0443  1303               	bcf	3,6	;RP1=0, select bank0
  2198  0444  1388               	bcf	8,7	;volatile
  2199  0445                     i1l1582:	
  2200  0445  3002               	movlw	2
  2201  0446  067A               	xorwf	_etape,w
  2202  0447  047B               	iorwf	_etape+1,w
  2203  0448  1D03               	btfss	3,2
  2204  0449  2DAC               	goto	i1l1682
  2205  044A  2AFA               	goto	i1l191
  2206  044B                     i1l225:	
  2207                           ;genie_en_herbe.c: 411: }
  2208                           ;genie_en_herbe.c: 412: }
  2209                           ;genie_en_herbe.c: 414: while (etape == 3) {
  2210                           
  2211                           
  2212                           ;genie_en_herbe.c: 415: if (RB0 == 0 && phase == 2) {
  2213  044B  1806               	btfsc	6,0	;volatile
  2214  044C  2CA9               	goto	i1l226
  2215  044D  3002               	movlw	2
  2216  044E  067C               	xorwf	_phase,w
  2217  044F  047D               	iorwf	_phase+1,w
  2218  0450  1D03               	btfss	3,2
  2219  0451  2CA9               	goto	i1l226
  2220                           
  2221                           ;genie_en_herbe.c: 416: RD0 = 1;
  2222  0452  1408               	bsf	8,0	;volatile
  2223                           
  2224                           ;genie_en_herbe.c: 417: RD1 = 0;
  2225  0453  1088               	bcf	8,1	;volatile
  2226                           
  2227                           ;genie_en_herbe.c: 418: RD2 = 0;
  2228  0454  1108               	bcf	8,2	;volatile
  2229                           
  2230                           ;genie_en_herbe.c: 419: RD3 = 0;
  2231  0455  1188               	bcf	8,3	;volatile
  2232                           
  2233                           ;genie_en_herbe.c: 420: RD4 = 0;
  2234  0456  1208               	bcf	8,4	;volatile
  2235                           
  2236                           ;genie_en_herbe.c: 421: RD5 = 0;
  2237  0457  1288               	bcf	8,5	;volatile
  2238                           
  2239                           ;genie_en_herbe.c: 422: RD6 = 0;
  2240  0458  1308               	bcf	8,6	;volatile
  2241                           
  2242                           ;genie_en_herbe.c: 423: RD7 = 0;
  2243  0459  1388               	bcf	8,7	;volatile
  2244                           
  2245                           ;genie_en_herbe.c: 424: uart_txStr("L'Equipe A a la main");
  2246  045A  3001               	movlw	(low ((STR_1-__stringbase)| (0+32768)))& (0+255)
  2247  045B  120A  118A  25EC  120A  118A  	fcall	_uart_txStr
  2248                           
  2249                           ;genie_en_herbe.c: 425: _delay((unsigned long)((6000)*(20e6/4000.0)));
  2250  0460  3099               	movlw	153
  2251  0461  00F5               	movwf	??_jdk1+2
  2252  0462  3031               	movlw	49
  2253  0463  00F4               	movwf	??_jdk1+1
  2254  0464  30A2               	movlw	162
  2255  0465  00F3               	movwf	??_jdk1
  2256  0466                     u216_27:	
  2257  0466  0BF3               	decfsz	??_jdk1,f
  2258  0467  2C66               	goto	u216_27
  2259  0468  0BF4               	decfsz	??_jdk1+1,f
  2260  0469  2C66               	goto	u216_27
  2261  046A  0BF5               	decfsz	??_jdk1+2,f
  2262  046B  2C66               	goto	u216_27
  2263  046C  0000               	nop
  2264                           
  2265                           ;genie_en_herbe.c: 426: RD0 = 0;
  2266  046D  1283               	bcf	3,5	;RP0=0, select bank0
  2267  046E  1303               	bcf	3,6	;RP1=0, select bank0
  2268  046F  1008               	bcf	8,0	;volatile
  2269                           
  2270                           ;genie_en_herbe.c: 427: phase = 3;
  2271  0470  3003               	movlw	3
  2272  0471  00FC               	movwf	_phase
  2273  0472  3000               	movlw	0
  2274  0473  00FD               	movwf	_phase+1
  2275                           
  2276                           ;genie_en_herbe.c: 428: _delay((unsigned long)((4000)*(20e6/4000.0)));
  2277  0474  3066               	movlw	102
  2278  0475  00F5               	movwf	??_jdk1+2
  2279  0476  3076               	movlw	118
  2280  0477  00F4               	movwf	??_jdk1+1
  2281  0478  30C1               	movlw	193
  2282  0479  00F3               	movwf	??_jdk1
  2283  047A                     u217_27:	
  2284  047A  0BF3               	decfsz	??_jdk1,f
  2285  047B  2C7A               	goto	u217_27
  2286  047C  0BF4               	decfsz	??_jdk1+1,f
  2287  047D  2C7A               	goto	u217_27
  2288  047E  0BF5               	decfsz	??_jdk1+2,f
  2289  047F  2C7A               	goto	u217_27
  2290                           
  2291                           ;genie_en_herbe.c: 429: if (RCREG == 'I') {
  2292  0480  3049               	movlw	73
  2293  0481  1283               	bcf	3,5	;RP0=0, select bank0
  2294  0482  1303               	bcf	3,6	;RP1=0, select bank0
  2295  0483  061A               	xorwf	26,w	;volatile
  2296  0484  1D03               	btfss	3,2
  2297  0485  2C88               	goto	i1l1602
  2298                           
  2299                           ;genie_en_herbe.c: 430: phase = 0;
  2300  0486  01FC               	clrf	_phase
  2301  0487  01FD               	clrf	_phase+1
  2302  0488                     i1l1602:	
  2303                           
  2304                           ;genie_en_herbe.c: 431: }
  2305                           ;genie_en_herbe.c: 433: if (RB4 == 0) {
  2306  0488  1A06               	btfsc	6,4	;volatile
  2307  0489  2DAC               	goto	i1l1682
  2308                           
  2309                           ;genie_en_herbe.c: 434: RD4 = 1;
  2310  048A  1608               	bsf	8,4	;volatile
  2311                           
  2312                           ;genie_en_herbe.c: 435: RD5 = 0;
  2313  048B  1288               	bcf	8,5	;volatile
  2314                           
  2315                           ;genie_en_herbe.c: 436: RD6 = 0;
  2316  048C  1308               	bcf	8,6	;volatile
  2317                           
  2318                           ;genie_en_herbe.c: 437: RD7 = 0;
  2319  048D  1388               	bcf	8,7	;volatile
  2320                           
  2321                           ;genie_en_herbe.c: 438: uart_txStr("L'Equipe B a la main");
  2322  048E  3016               	movlw	(low ((STR_2-__stringbase)| (0+32768)))& (0+255)
  2323  048F  120A  118A  25EC  120A  118A  	fcall	_uart_txStr
  2324                           
  2325                           ;genie_en_herbe.c: 439: _delay((unsigned long)((6000)*(20e6/4000.0)));
  2326  0494  3099               	movlw	153
  2327  0495  00F5               	movwf	??_jdk1+2
  2328  0496  3031               	movlw	49
  2329  0497  00F4               	movwf	??_jdk1+1
  2330  0498  30A2               	movlw	162
  2331  0499  00F3               	movwf	??_jdk1
  2332  049A                     u218_27:	
  2333  049A  0BF3               	decfsz	??_jdk1,f
  2334  049B  2C9A               	goto	u218_27
  2335  049C  0BF4               	decfsz	??_jdk1+1,f
  2336  049D  2C9A               	goto	u218_27
  2337  049E  0BF5               	decfsz	??_jdk1+2,f
  2338  049F  2C9A               	goto	u218_27
  2339  04A0  0000               	nop
  2340                           
  2341                           ;genie_en_herbe.c: 440: RD4 = 0;
  2342  04A1  1283               	bcf	3,5	;RP0=0, select bank0
  2343  04A2  1303               	bcf	3,6	;RP1=0, select bank0
  2344  04A3  1208               	bcf	8,4	;volatile
  2345                           
  2346                           ;genie_en_herbe.c: 441: phase = 3;
  2347  04A4  3003               	movlw	3
  2348  04A5  00FC               	movwf	_phase
  2349  04A6  3000               	movlw	0
  2350  04A7  00FD               	movwf	_phase+1
  2351                           
  2352                           ;genie_en_herbe.c: 442: }
  2353                           ;genie_en_herbe.c: 444: } else if (RB1 == 0 && phase == 2) {
  2354  04A8  2DAC               	goto	i1l1682
  2355  04A9                     i1l226:	
  2356  04A9  1886               	btfsc	6,1	;volatile
  2357  04AA  2CCF               	goto	i1l230
  2358  04AB  3002               	movlw	2
  2359  04AC  067C               	xorwf	_phase,w
  2360  04AD  047D               	iorwf	_phase+1,w
  2361  04AE  1D03               	btfss	3,2
  2362  04AF  2CCF               	goto	i1l230
  2363                           
  2364                           ;genie_en_herbe.c: 445: RD1 = 1;
  2365  04B0  1488               	bsf	8,1	;volatile
  2366                           
  2367                           ;genie_en_herbe.c: 446: RD0 = 0;
  2368  04B1  1008               	bcf	8,0	;volatile
  2369                           
  2370                           ;genie_en_herbe.c: 447: RD2 = 0;
  2371  04B2  1108               	bcf	8,2	;volatile
  2372                           
  2373                           ;genie_en_herbe.c: 448: RD3 = 0;
  2374  04B3  1188               	bcf	8,3	;volatile
  2375                           
  2376                           ;genie_en_herbe.c: 449: RD4 = 0;
  2377  04B4  1208               	bcf	8,4	;volatile
  2378                           
  2379                           ;genie_en_herbe.c: 450: RD5 = 0;
  2380  04B5  1288               	bcf	8,5	;volatile
  2381                           
  2382                           ;genie_en_herbe.c: 451: RD6 = 0;
  2383  04B6  1308               	bcf	8,6	;volatile
  2384                           
  2385                           ;genie_en_herbe.c: 452: RD7 = 0;
  2386  04B7  1388               	bcf	8,7	;volatile
  2387                           
  2388                           ;genie_en_herbe.c: 453: uart_txStr("L'Equipe A a la main");
  2389  04B8  3001               	movlw	(low ((STR_1-__stringbase)| (0+32768)))& (0+255)
  2390  04B9  120A  118A  25EC  120A  118A  	fcall	_uart_txStr
  2391                           
  2392                           ;genie_en_herbe.c: 454: _delay((unsigned long)((6000)*(20e6/4000.0)));
  2393  04BE  3099               	movlw	153
  2394  04BF  00F5               	movwf	??_jdk1+2
  2395  04C0  3031               	movlw	49
  2396  04C1  00F4               	movwf	??_jdk1+1
  2397  04C2  30A2               	movlw	162
  2398  04C3  00F3               	movwf	??_jdk1
  2399  04C4                     u219_27:	
  2400  04C4  0BF3               	decfsz	??_jdk1,f
  2401  04C5  2CC4               	goto	u219_27
  2402  04C6  0BF4               	decfsz	??_jdk1+1,f
  2403  04C7  2CC4               	goto	u219_27
  2404  04C8  0BF5               	decfsz	??_jdk1+2,f
  2405  04C9  2CC4               	goto	u219_27
  2406  04CA  0000               	nop
  2407                           
  2408                           ;genie_en_herbe.c: 455: RD1 = 0;
  2409  04CB  1283               	bcf	3,5	;RP0=0, select bank0
  2410  04CC  1303               	bcf	3,6	;RP1=0, select bank0
  2411  04CD  1088               	bcf	8,1	;volatile
  2412                           
  2413                           ;genie_en_herbe.c: 456: } else if (RB2 == 0 && phase == 2) {
  2414  04CE  2DAC               	goto	i1l1682
  2415  04CF                     i1l230:	
  2416  04CF  1906               	btfsc	6,2	;volatile
  2417  04D0  2CF5               	goto	i1l232
  2418  04D1  3002               	movlw	2
  2419  04D2  067C               	xorwf	_phase,w
  2420  04D3  047D               	iorwf	_phase+1,w
  2421  04D4  1D03               	btfss	3,2
  2422  04D5  2CF5               	goto	i1l232
  2423                           
  2424                           ;genie_en_herbe.c: 457: RD2 = 1;
  2425  04D6  1508               	bsf	8,2	;volatile
  2426                           
  2427                           ;genie_en_herbe.c: 458: RD0 = 0;
  2428  04D7  1008               	bcf	8,0	;volatile
  2429                           
  2430                           ;genie_en_herbe.c: 459: RD1 = 0;
  2431  04D8  1088               	bcf	8,1	;volatile
  2432                           
  2433                           ;genie_en_herbe.c: 460: RD3 = 0;
  2434  04D9  1188               	bcf	8,3	;volatile
  2435                           
  2436                           ;genie_en_herbe.c: 461: RD4 = 0;
  2437  04DA  1208               	bcf	8,4	;volatile
  2438                           
  2439                           ;genie_en_herbe.c: 462: RD5 = 0;
  2440  04DB  1288               	bcf	8,5	;volatile
  2441                           
  2442                           ;genie_en_herbe.c: 463: RD6 = 0;
  2443  04DC  1308               	bcf	8,6	;volatile
  2444                           
  2445                           ;genie_en_herbe.c: 464: RD7 = 0;
  2446  04DD  1388               	bcf	8,7	;volatile
  2447                           
  2448                           ;genie_en_herbe.c: 465: uart_txStr("L'Equipe A a la main");
  2449  04DE  3001               	movlw	(low ((STR_1-__stringbase)| (0+32768)))& (0+255)
  2450  04DF  120A  118A  25EC  120A  118A  	fcall	_uart_txStr
  2451                           
  2452                           ;genie_en_herbe.c: 466: _delay((unsigned long)((6000)*(20e6/4000.0)));
  2453  04E4  3099               	movlw	153
  2454  04E5  00F5               	movwf	??_jdk1+2
  2455  04E6  3031               	movlw	49
  2456  04E7  00F4               	movwf	??_jdk1+1
  2457  04E8  30A2               	movlw	162
  2458  04E9  00F3               	movwf	??_jdk1
  2459  04EA                     u220_27:	
  2460  04EA  0BF3               	decfsz	??_jdk1,f
  2461  04EB  2CEA               	goto	u220_27
  2462  04EC  0BF4               	decfsz	??_jdk1+1,f
  2463  04ED  2CEA               	goto	u220_27
  2464  04EE  0BF5               	decfsz	??_jdk1+2,f
  2465  04EF  2CEA               	goto	u220_27
  2466  04F0  0000               	nop
  2467                           
  2468                           ;genie_en_herbe.c: 467: RD2 = 0;
  2469  04F1  1283               	bcf	3,5	;RP0=0, select bank0
  2470  04F2  1303               	bcf	3,6	;RP1=0, select bank0
  2471  04F3  1108               	bcf	8,2	;volatile
  2472                           
  2473                           ;genie_en_herbe.c: 469: } else if (RB3 == 0 && phase == 2) {
  2474  04F4  2DAC               	goto	i1l1682
  2475  04F5                     i1l232:	
  2476  04F5  1986               	btfsc	6,3	;volatile
  2477  04F6  2D1B               	goto	i1l234
  2478  04F7  3002               	movlw	2
  2479  04F8  067C               	xorwf	_phase,w
  2480  04F9  047D               	iorwf	_phase+1,w
  2481  04FA  1D03               	btfss	3,2
  2482  04FB  2D1B               	goto	i1l234
  2483                           
  2484                           ;genie_en_herbe.c: 470: RD3 = 1;
  2485  04FC  1588               	bsf	8,3	;volatile
  2486                           
  2487                           ;genie_en_herbe.c: 471: RD0 = 0;
  2488  04FD  1008               	bcf	8,0	;volatile
  2489                           
  2490                           ;genie_en_herbe.c: 472: RD1 = 0;
  2491  04FE  1088               	bcf	8,1	;volatile
  2492                           
  2493                           ;genie_en_herbe.c: 473: RD2 = 0;
  2494  04FF  1108               	bcf	8,2	;volatile
  2495                           
  2496                           ;genie_en_herbe.c: 474: RD4 = 0;
  2497  0500  1208               	bcf	8,4	;volatile
  2498                           
  2499                           ;genie_en_herbe.c: 475: RD5 = 0;
  2500  0501  1288               	bcf	8,5	;volatile
  2501                           
  2502                           ;genie_en_herbe.c: 476: RD6 = 0;
  2503  0502  1308               	bcf	8,6	;volatile
  2504                           
  2505                           ;genie_en_herbe.c: 477: RD7 = 0;
  2506  0503  1388               	bcf	8,7	;volatile
  2507                           
  2508                           ;genie_en_herbe.c: 478: uart_txStr("L'Equipe A a la main");
  2509  0504  3001               	movlw	(low ((STR_1-__stringbase)| (0+32768)))& (0+255)
  2510  0505  120A  118A  25EC  120A  118A  	fcall	_uart_txStr
  2511                           
  2512                           ;genie_en_herbe.c: 479: _delay((unsigned long)((6000)*(20e6/4000.0)));
  2513  050A  3099               	movlw	153
  2514  050B  00F5               	movwf	??_jdk1+2
  2515  050C  3031               	movlw	49
  2516  050D  00F4               	movwf	??_jdk1+1
  2517  050E  30A2               	movlw	162
  2518  050F  00F3               	movwf	??_jdk1
  2519  0510                     u221_27:	
  2520  0510  0BF3               	decfsz	??_jdk1,f
  2521  0511  2D10               	goto	u221_27
  2522  0512  0BF4               	decfsz	??_jdk1+1,f
  2523  0513  2D10               	goto	u221_27
  2524  0514  0BF5               	decfsz	??_jdk1+2,f
  2525  0515  2D10               	goto	u221_27
  2526  0516  0000               	nop
  2527                           
  2528                           ;genie_en_herbe.c: 480: RD3 = 0;
  2529  0517  1283               	bcf	3,5	;RP0=0, select bank0
  2530  0518  1303               	bcf	3,6	;RP1=0, select bank0
  2531  0519  1188               	bcf	8,3	;volatile
  2532                           
  2533                           ;genie_en_herbe.c: 481: } else if (RB4 == 0 && phase == 1) {
  2534  051A  2DAC               	goto	i1l1682
  2535  051B                     i1l234:	
  2536  051B  1A06               	btfsc	6,4	;volatile
  2537  051C  2D40               	goto	i1l1654
  2538  051D  037C               	decf	_phase,w
  2539  051E  047D               	iorwf	_phase+1,w
  2540  051F  1D03               	btfss	3,2
  2541  0520  2D40               	goto	i1l1654
  2542                           
  2543                           ;genie_en_herbe.c: 482: RD4 = 1;
  2544  0521  1608               	bsf	8,4	;volatile
  2545                           
  2546                           ;genie_en_herbe.c: 483: RD0 = 0;
  2547  0522  1008               	bcf	8,0	;volatile
  2548                           
  2549                           ;genie_en_herbe.c: 484: RD1 = 0;
  2550  0523  1088               	bcf	8,1	;volatile
  2551                           
  2552                           ;genie_en_herbe.c: 485: RD2 = 0;
  2553  0524  1108               	bcf	8,2	;volatile
  2554                           
  2555                           ;genie_en_herbe.c: 486: RD3 = 0;
  2556  0525  1188               	bcf	8,3	;volatile
  2557                           
  2558                           ;genie_en_herbe.c: 487: RD5 = 0;
  2559  0526  1288               	bcf	8,5	;volatile
  2560                           
  2561                           ;genie_en_herbe.c: 488: RD6 = 0;
  2562  0527  1308               	bcf	8,6	;volatile
  2563                           
  2564                           ;genie_en_herbe.c: 489: RD7 = 0;
  2565  0528  1388               	bcf	8,7	;volatile
  2566                           
  2567                           ;genie_en_herbe.c: 490: uart_txStr("L'Equipe B a la main");
  2568  0529  3016               	movlw	(low ((STR_2-__stringbase)| (0+32768)))& (0+255)
  2569  052A  120A  118A  25EC  120A  118A  	fcall	_uart_txStr
  2570                           
  2571                           ;genie_en_herbe.c: 491: _delay((unsigned long)((6000)*(20e6/4000.0)));
  2572  052F  3099               	movlw	153
  2573  0530  00F5               	movwf	??_jdk1+2
  2574  0531  3031               	movlw	49
  2575  0532  00F4               	movwf	??_jdk1+1
  2576  0533  30A2               	movlw	162
  2577  0534  00F3               	movwf	??_jdk1
  2578  0535                     u222_27:	
  2579  0535  0BF3               	decfsz	??_jdk1,f
  2580  0536  2D35               	goto	u222_27
  2581  0537  0BF4               	decfsz	??_jdk1+1,f
  2582  0538  2D35               	goto	u222_27
  2583  0539  0BF5               	decfsz	??_jdk1+2,f
  2584  053A  2D35               	goto	u222_27
  2585  053B  0000               	nop
  2586                           
  2587                           ;genie_en_herbe.c: 492: RD4 = 0;
  2588  053C  1283               	bcf	3,5	;RP0=0, select bank0
  2589  053D  1303               	bcf	3,6	;RP1=0, select bank0
  2590  053E  1208               	bcf	8,4	;volatile
  2591                           
  2592                           ;genie_en_herbe.c: 493: } else if (RB5 == 0 && 0 || phase == 1) {
  2593  053F  2DAC               	goto	i1l1682
  2594  0540                     i1l1654:	
  2595  0540  037C               	decf	_phase,w
  2596  0541  047D               	iorwf	_phase+1,w
  2597  0542  1D03               	btfss	3,2
  2598  0543  2D63               	goto	i1l238
  2599                           
  2600                           ;genie_en_herbe.c: 494: RD5 = 1;
  2601  0544  1688               	bsf	8,5	;volatile
  2602                           
  2603                           ;genie_en_herbe.c: 495: RD0 = 0;
  2604  0545  1008               	bcf	8,0	;volatile
  2605                           
  2606                           ;genie_en_herbe.c: 496: RD1 = 0;
  2607  0546  1088               	bcf	8,1	;volatile
  2608                           
  2609                           ;genie_en_herbe.c: 497: RD2 = 0;
  2610  0547  1108               	bcf	8,2	;volatile
  2611                           
  2612                           ;genie_en_herbe.c: 498: RD3 = 0;
  2613  0548  1188               	bcf	8,3	;volatile
  2614                           
  2615                           ;genie_en_herbe.c: 499: RD4 = 0;
  2616  0549  1208               	bcf	8,4	;volatile
  2617                           
  2618                           ;genie_en_herbe.c: 500: RD6 = 0;
  2619  054A  1308               	bcf	8,6	;volatile
  2620                           
  2621                           ;genie_en_herbe.c: 501: RD7 = 0;
  2622  054B  1388               	bcf	8,7	;volatile
  2623                           
  2624                           ;genie_en_herbe.c: 502: uart_txStr("L'Equipe B a la main");
  2625  054C  3016               	movlw	(low ((STR_2-__stringbase)| (0+32768)))& (0+255)
  2626  054D  120A  118A  25EC  120A  118A  	fcall	_uart_txStr
  2627                           
  2628                           ;genie_en_herbe.c: 503: _delay((unsigned long)((6000)*(20e6/4000.0)));
  2629  0552  3099               	movlw	153
  2630  0553  00F5               	movwf	??_jdk1+2
  2631  0554  3031               	movlw	49
  2632  0555  00F4               	movwf	??_jdk1+1
  2633  0556  30A2               	movlw	162
  2634  0557  00F3               	movwf	??_jdk1
  2635  0558                     u223_27:	
  2636  0558  0BF3               	decfsz	??_jdk1,f
  2637  0559  2D58               	goto	u223_27
  2638  055A  0BF4               	decfsz	??_jdk1+1,f
  2639  055B  2D58               	goto	u223_27
  2640  055C  0BF5               	decfsz	??_jdk1+2,f
  2641  055D  2D58               	goto	u223_27
  2642  055E  0000               	nop
  2643                           
  2644                           ;genie_en_herbe.c: 504: RD5 = 0;
  2645  055F  1283               	bcf	3,5	;RP0=0, select bank0
  2646  0560  1303               	bcf	3,6	;RP1=0, select bank0
  2647  0561  1288               	bcf	8,5	;volatile
  2648                           
  2649                           ;genie_en_herbe.c: 505: } else if (RB6 == 0 && phase == 1) {
  2650  0562  2DAC               	goto	i1l1682
  2651  0563                     i1l238:	
  2652  0563  1B06               	btfsc	6,6	;volatile
  2653  0564  2D88               	goto	i1l244
  2654  0565  037C               	decf	_phase,w
  2655  0566  047D               	iorwf	_phase+1,w
  2656  0567  1D03               	btfss	3,2
  2657  0568  2D88               	goto	i1l244
  2658                           
  2659                           ;genie_en_herbe.c: 506: RD6 = 1;
  2660  0569  1708               	bsf	8,6	;volatile
  2661                           
  2662                           ;genie_en_herbe.c: 507: RD0 = 0;
  2663  056A  1008               	bcf	8,0	;volatile
  2664                           
  2665                           ;genie_en_herbe.c: 508: RD1 = 0;
  2666  056B  1088               	bcf	8,1	;volatile
  2667                           
  2668                           ;genie_en_herbe.c: 509: RD2 = 0;
  2669  056C  1108               	bcf	8,2	;volatile
  2670                           
  2671                           ;genie_en_herbe.c: 510: RD3 = 0;
  2672  056D  1188               	bcf	8,3	;volatile
  2673                           
  2674                           ;genie_en_herbe.c: 511: RD4 = 0;
  2675  056E  1208               	bcf	8,4	;volatile
  2676                           
  2677                           ;genie_en_herbe.c: 512: RD5 = 0;
  2678  056F  1288               	bcf	8,5	;volatile
  2679                           
  2680                           ;genie_en_herbe.c: 513: RD7 = 0;
  2681  0570  1388               	bcf	8,7	;volatile
  2682                           
  2683                           ;genie_en_herbe.c: 514: uart_txStr("L'Equipe B a la main");
  2684  0571  3016               	movlw	(low ((STR_2-__stringbase)| (0+32768)))& (0+255)
  2685  0572  120A  118A  25EC  120A  118A  	fcall	_uart_txStr
  2686                           
  2687                           ;genie_en_herbe.c: 515: _delay((unsigned long)((6000)*(20e6/4000.0)));
  2688  0577  3099               	movlw	153
  2689  0578  00F5               	movwf	??_jdk1+2
  2690  0579  3031               	movlw	49
  2691  057A  00F4               	movwf	??_jdk1+1
  2692  057B  30A2               	movlw	162
  2693  057C  00F3               	movwf	??_jdk1
  2694  057D                     u224_27:	
  2695  057D  0BF3               	decfsz	??_jdk1,f
  2696  057E  2D7D               	goto	u224_27
  2697  057F  0BF4               	decfsz	??_jdk1+1,f
  2698  0580  2D7D               	goto	u224_27
  2699  0581  0BF5               	decfsz	??_jdk1+2,f
  2700  0582  2D7D               	goto	u224_27
  2701  0583  0000               	nop
  2702                           
  2703                           ;genie_en_herbe.c: 516: RD6 = 0;
  2704  0584  1283               	bcf	3,5	;RP0=0, select bank0
  2705  0585  1303               	bcf	3,6	;RP1=0, select bank0
  2706  0586  1308               	bcf	8,6	;volatile
  2707                           
  2708                           ;genie_en_herbe.c: 518: } else if (RB7 == 0 && phase == 1) {
  2709  0587  2DAC               	goto	i1l1682
  2710  0588                     i1l244:	
  2711  0588  1B86               	btfsc	6,7	;volatile
  2712  0589  2DAC               	goto	i1l1682
  2713  058A  037C               	decf	_phase,w
  2714  058B  047D               	iorwf	_phase+1,w
  2715  058C  1D03               	btfss	3,2
  2716  058D  2DAC               	goto	i1l1682
  2717                           
  2718                           ;genie_en_herbe.c: 519: RD7 = 1;
  2719  058E  1788               	bsf	8,7	;volatile
  2720                           
  2721                           ;genie_en_herbe.c: 520: RD0 = 0;
  2722  058F  1008               	bcf	8,0	;volatile
  2723                           
  2724                           ;genie_en_herbe.c: 521: RD1 = 0;
  2725  0590  1088               	bcf	8,1	;volatile
  2726                           
  2727                           ;genie_en_herbe.c: 522: RD2 = 0;
  2728  0591  1108               	bcf	8,2	;volatile
  2729                           
  2730                           ;genie_en_herbe.c: 523: RD3 = 0;
  2731  0592  1188               	bcf	8,3	;volatile
  2732                           
  2733                           ;genie_en_herbe.c: 524: RD4 = 0;
  2734  0593  1208               	bcf	8,4	;volatile
  2735                           
  2736                           ;genie_en_herbe.c: 525: RD5 = 0;
  2737  0594  1288               	bcf	8,5	;volatile
  2738                           
  2739                           ;genie_en_herbe.c: 526: RD6 = 0;
  2740  0595  1308               	bcf	8,6	;volatile
  2741                           
  2742                           ;genie_en_herbe.c: 527: uart_txStr("L'Equipe B a la main");
  2743  0596  3016               	movlw	(low ((STR_2-__stringbase)| (0+32768)))& (0+255)
  2744  0597  120A  118A  25EC  120A  118A  	fcall	_uart_txStr
  2745                           
  2746                           ;genie_en_herbe.c: 528: _delay((unsigned long)((6000)*(20e6/4000.0)));
  2747  059C  3099               	movlw	153
  2748  059D  00F5               	movwf	??_jdk1+2
  2749  059E  3031               	movlw	49
  2750  059F  00F4               	movwf	??_jdk1+1
  2751  05A0  30A2               	movlw	162
  2752  05A1  00F3               	movwf	??_jdk1
  2753  05A2                     u225_27:	
  2754  05A2  0BF3               	decfsz	??_jdk1,f
  2755  05A3  2DA2               	goto	u225_27
  2756  05A4  0BF4               	decfsz	??_jdk1+1,f
  2757  05A5  2DA2               	goto	u225_27
  2758  05A6  0BF5               	decfsz	??_jdk1+2,f
  2759  05A7  2DA2               	goto	u225_27
  2760  05A8  0000               	nop
  2761                           
  2762                           ;genie_en_herbe.c: 529: RD7 = 0;
  2763  05A9  1283               	bcf	3,5	;RP0=0, select bank0
  2764  05AA  1303               	bcf	3,6	;RP1=0, select bank0
  2765  05AB  1388               	bcf	8,7	;volatile
  2766  05AC                     i1l1682:	
  2767  05AC  3003               	movlw	3
  2768  05AD  067A               	xorwf	_etape,w
  2769  05AE  047B               	iorwf	_etape+1,w
  2770  05AF  1903               	btfsc	3,2
  2771  05B0  2C4B               	goto	i1l225
  2772  05B1                     i1l248:	
  2773  05B1  0879               	movf	??_jdk1+6,w
  2774  05B2  00FF               	movwf	127
  2775  05B3  0878               	movf	??_jdk1+5,w
  2776  05B4  008A               	movwf	10
  2777  05B5  0877               	movf	??_jdk1+4,w
  2778  05B6  0084               	movwf	4
  2779  05B7  0E76               	swapf	(??_jdk1+3)^(0+-128),w
  2780  05B8  0083               	movwf	3
  2781  05B9  0EFE               	swapf	126,f
  2782  05BA  0E7E               	swapf	126,w
  2783  05BB  0009               	retfie
  2784  05BC                     __end_of_jdk1:	
  2785                           
  2786                           	psect	intentry
  2787  0004                     __pintentry:	
  2788                           ;incstack = 0
  2789                           ; Regs used in _jdk1: [wreg-fsr0h+status,2+status,0+pclath+cstack]
  2790                           
  2791  0004                     interrupt_function:	
  2792  007E                     saved_w	set	btemp
  2793  0004  00FE               	movwf	btemp
  2794  0005  0E03               	swapf	3,w
  2795  0006  00F6               	movwf	??_jdk1+3
  2796  0007  0804               	movf	4,w
  2797  0008  00F7               	movwf	??_jdk1+4
  2798  0009  080A               	movf	10,w
  2799  000A  00F8               	movwf	??_jdk1+5
  2800  000B  1283               	bcf	3,5	;RP0=0, select bank0
  2801  000C  1303               	bcf	3,6	;RP1=0, select bank0
  2802  000D  087F               	movf	btemp+1,w
  2803  000E  00F9               	movwf	??_jdk1+6
  2804  000F  120A  118A  2820   	ljmp	_jdk1
  2805                           
  2806                           	psect	text3
  2807  05EC                     __ptext3:	
  2808 ;; *************** function _uart_txStr *****************
  2809 ;; Defined at:
  2810 ;;		line 78 in file "genie_en_herbe.c"
  2811 ;; Parameters:    Size  Location     Type
  2812 ;;  str             1    wreg     PTR const unsigned char 
  2813 ;;		 -> STR_33(21), STR_32(21), STR_31(21), STR_30(21), 
  2814 ;;		 -> STR_29(21), STR_28(21), STR_27(21), STR_26(21), 
  2815 ;;		 -> STR_25(21), STR_24(21), STR_23(21), STR_22(21), 
  2816 ;;		 -> STR_21(21), STR_20(21), STR_19(21), STR_18(21), 
  2817 ;;		 -> STR_17(21), STR_16(21), STR_15(21), STR_14(21), 
  2818 ;;		 -> STR_13(21), STR_12(21), STR_11(21), STR_10(21), 
  2819 ;;		 -> STR_9(21), STR_8(21), STR_7(21), STR_6(21), 
  2820 ;;		 -> STR_5(21), STR_4(21), STR_3(21), STR_2(21), 
  2821 ;;		 -> STR_1(21), 
  2822 ;; Auto vars:     Size  Location     Type
  2823 ;;  str             1    2[COMMON] PTR const unsigned char 
  2824 ;;		 -> STR_33(21), STR_32(21), STR_31(21), STR_30(21), 
  2825 ;;		 -> STR_29(21), STR_28(21), STR_27(21), STR_26(21), 
  2826 ;;		 -> STR_25(21), STR_24(21), STR_23(21), STR_22(21), 
  2827 ;;		 -> STR_21(21), STR_20(21), STR_19(21), STR_18(21), 
  2828 ;;		 -> STR_17(21), STR_16(21), STR_15(21), STR_14(21), 
  2829 ;;		 -> STR_13(21), STR_12(21), STR_11(21), STR_10(21), 
  2830 ;;		 -> STR_9(21), STR_8(21), STR_7(21), STR_6(21), 
  2831 ;;		 -> STR_5(21), STR_4(21), STR_3(21), STR_2(21), 
  2832 ;;		 -> STR_1(21), 
  2833 ;; Return value:  Size  Location     Type
  2834 ;;                  1    wreg      void 
  2835 ;; Registers used:
  2836 ;;		wreg, fsr0l, fsr0h, status,2, status,0, pclath, cstack
  2837 ;; Tracked objects:
  2838 ;;		On entry : 0/0
  2839 ;;		On exit  : 0/0
  2840 ;;		Unchanged: 0/0
  2841 ;; Data sizes:     COMMON   BANK0   BANK1   BANK3   BANK2
  2842 ;;      Params:         0       0       0       0       0
  2843 ;;      Locals:         1       0       0       0       0
  2844 ;;      Temps:          1       0       0       0       0
  2845 ;;      Totals:         2       0       0       0       0
  2846 ;;Total ram usage:        2 bytes
  2847 ;; Hardware stack levels used:    1
  2848 ;; Hardware stack levels required when called:    1
  2849 ;; This function calls:
  2850 ;;		_uart_txChar
  2851 ;; This function is called by:
  2852 ;;		_jdk1
  2853 ;; This function uses a non-reentrant model
  2854 ;;
  2855                           
  2856                           
  2857                           ;psect for function _uart_txStr
  2858  05EC                     _uart_txStr:	
  2859                           
  2860                           ;incstack = 0
  2861                           ; Regs used in _uart_txStr: [wreg-fsr0h+status,2+status,0+pclath+cstack]
  2862                           ;uart_txStr@str stored from wreg
  2863  05EC  00F2               	movwf	uart_txStr@str
  2864  05ED                     i1l1244:	
  2865                           ;genie_en_herbe.c: 79: while (*str != '\0') {
  2866                           
  2867  05ED  0872               	movf	uart_txStr@str,w
  2868  05EE  0084               	movwf	4
  2869  05EF  120A  118A  25BC  120A  118A  	fcall	stringdir
  2870  05F4  3A00               	xorlw	0
  2871  05F5  1903               	btfsc	3,2
  2872  05F6  2E08               	goto	i1l1246
  2873                           
  2874                           ;genie_en_herbe.c: 80: uart_txChar(*str);
  2875  05F7  0872               	movf	uart_txStr@str,w
  2876  05F8  0084               	movwf	4
  2877  05F9  120A  118A  25BC  120A  118A  	fcall	stringdir
  2878  05FE  120A  118A  264B  120A  118A  	fcall	_uart_txChar
  2879                           
  2880                           ;genie_en_herbe.c: 81: str++;
  2881  0603  3001               	movlw	1
  2882  0604  00F1               	movwf	??_uart_txStr
  2883  0605  0871               	movf	??_uart_txStr,w
  2884  0606  07F2               	addwf	uart_txStr@str,f
  2885  0607  2DED               	goto	i1l1244
  2886  0608                     i1l1246:	
  2887                           
  2888                           ;genie_en_herbe.c: 82: }
  2889                           ;genie_en_herbe.c: 83: uart_txChar('\r');
  2890  0608  300D               	movlw	13
  2891  0609  120A  118A  264B  120A  118A  	fcall	_uart_txChar
  2892                           
  2893                           ;genie_en_herbe.c: 84: uart_txChar('\n');
  2894  060E  300A               	movlw	10
  2895  060F  120A  118A  264B   	fcall	_uart_txChar
  2896  0612  0008               	return
  2897  0613                     __end_of_uart_txStr:	
  2898                           
  2899                           	psect	text4
  2900  064B                     __ptext4:	
  2901 ;; *************** function _uart_txChar *****************
  2902 ;; Defined at:
  2903 ;;		line 73 in file "genie_en_herbe.c"
  2904 ;; Parameters:    Size  Location     Type
  2905 ;;  ch              1    wreg     unsigned char 
  2906 ;; Auto vars:     Size  Location     Type
  2907 ;;  ch              1    0[COMMON] unsigned char 
  2908 ;; Return value:  Size  Location     Type
  2909 ;;                  1    wreg      void 
  2910 ;; Registers used:
  2911 ;;		wreg
  2912 ;; Tracked objects:
  2913 ;;		On entry : 0/0
  2914 ;;		On exit  : 0/0
  2915 ;;		Unchanged: 0/0
  2916 ;; Data sizes:     COMMON   BANK0   BANK1   BANK3   BANK2
  2917 ;;      Params:         0       0       0       0       0
  2918 ;;      Locals:         1       0       0       0       0
  2919 ;;      Temps:          0       0       0       0       0
  2920 ;;      Totals:         1       0       0       0       0
  2921 ;;Total ram usage:        1 bytes
  2922 ;; Hardware stack levels used:    1
  2923 ;; This function calls:
  2924 ;;		Nothing
  2925 ;; This function is called by:
  2926 ;;		_uart_txStr
  2927 ;; This function uses a non-reentrant model
  2928 ;;
  2929                           
  2930                           
  2931                           ;psect for function _uart_txChar
  2932  064B                     _uart_txChar:	
  2933                           
  2934                           ;incstack = 0
  2935                           ; Regs used in _uart_txChar: [wreg]
  2936                           ;uart_txChar@ch stored from wreg
  2937  064B  00F0               	movwf	uart_txChar@ch
  2938  064C                     i1l102:	
  2939                           ;genie_en_herbe.c: 74: while (!TRMT);
  2940                           
  2941  064C  1683               	bsf	3,5	;RP0=1, select bank1
  2942  064D  1303               	bcf	3,6	;RP1=0, select bank1
  2943  064E  1C98               	btfss	24,1	;volatile
  2944  064F  2E4C               	goto	i1l102
  2945                           
  2946                           ;genie_en_herbe.c: 75: TXREG = ch;
  2947  0650  0870               	movf	uart_txChar@ch,w
  2948  0651  1283               	bcf	3,5	;RP0=0, select bank0
  2949  0652  1303               	bcf	3,6	;RP1=0, select bank0
  2950  0653  0099               	movwf	25	;volatile
  2951  0654  0008               	return
  2952  0655                     __end_of_uart_txChar:	
  2953  007E                     btemp	set	126	;btemp
  2954  007E                     wtemp0	set	126


Data Sizes:
    Strings     42
    Constant    0
    Data        0
    BSS         5
    Persistent  0
    Stack       0

Auto Spaces:
    Space          Size  Autos    Used
    COMMON           14     10      14
    BANK0            80      0       1
    BANK1            80      0       0
    BANK3            96      0       0
    BANK2            96      0       0

Pointer List with Targets:

    uart_txStr@str	PTR const unsigned char  size(1) Largest target is 21
		 -> STR_33(CODE[21]), STR_32(CODE[21]), STR_31(CODE[21]), STR_30(CODE[21]), 
		 -> STR_29(CODE[21]), STR_28(CODE[21]), STR_27(CODE[21]), STR_26(CODE[21]), 
		 -> STR_25(CODE[21]), STR_24(CODE[21]), STR_23(CODE[21]), STR_22(CODE[21]), 
		 -> STR_21(CODE[21]), STR_20(CODE[21]), STR_19(CODE[21]), STR_18(CODE[21]), 
		 -> STR_17(CODE[21]), STR_16(CODE[21]), STR_15(CODE[21]), STR_14(CODE[21]), 
		 -> STR_13(CODE[21]), STR_12(CODE[21]), STR_11(CODE[21]), STR_10(CODE[21]), 
		 -> STR_9(CODE[21]), STR_8(CODE[21]), STR_7(CODE[21]), STR_6(CODE[21]), 
		 -> STR_5(CODE[21]), STR_4(CODE[21]), STR_3(CODE[21]), STR_2(CODE[21]), 
		 -> STR_1(CODE[21]), 


Critical Paths under _main in COMMON

    None.

Critical Paths under _jdk1 in COMMON

    _jdk1->_uart_txStr
    _uart_txStr->_uart_txChar

Critical Paths under _main in BANK0

    None.

Critical Paths under _jdk1 in BANK0

    None.

Critical Paths under _main in BANK1

    None.

Critical Paths under _jdk1 in BANK1

    None.

Critical Paths under _main in BANK3

    None.

Critical Paths under _jdk1 in BANK3

    None.

Critical Paths under _main in BANK2

    None.

Critical Paths under _jdk1 in BANK2

    None.

Call Graph Tables:

 ---------------------------------------------------------------------------------
 (Depth) Function   	        Calls       Base Space   Used Autos Params    Refs
 ---------------------------------------------------------------------------------
 (0) _main                                                 0     0      0       0
                          _uart_unit
 ---------------------------------------------------------------------------------
 (1) _uart_unit                                            0     0      0       0
 ---------------------------------------------------------------------------------
 Estimated maximum stack depth 1
 ---------------------------------------------------------------------------------
 (Depth) Function   	        Calls       Base Space   Used Autos Params    Refs
 ---------------------------------------------------------------------------------
 (2) _jdk1                                                 7     7      0     951
                                              3 COMMON     7     7      0
                         _uart_txStr
 ---------------------------------------------------------------------------------
 (3) _uart_txStr                                           2     2      0     951
                                              1 COMMON     2     2      0
                        _uart_txChar
 ---------------------------------------------------------------------------------
 (4) _uart_txChar                                          1     1      0      15
                                              0 COMMON     1     1      0
 ---------------------------------------------------------------------------------
 Estimated maximum stack depth 4
 ---------------------------------------------------------------------------------

 Call Graph Graphs:

 _main (ROOT)
   _uart_unit

 _jdk1 (ROOT)
   _uart_txStr
     _uart_txChar

 Address spaces:
Name               Size   Autos  Total    Cost      Usage
BITCOMMON            E      0       0       0        0.0%
EEDATA             100      0       0       0        0.0%
NULL                 0      0       0       0        0.0%
CODE                 0      0       0       0        0.0%
COMMON               E      A       E       1      100.0%
BITSFR0              0      0       0       1        0.0%
SFR0                 0      0       0       1        0.0%
BITSFR1              0      0       0       2        0.0%
SFR1                 0      0       0       2        0.0%
STACK                0      0       0       2        0.0%
ABS                  0      0       F       3        0.0%
BITBANK0            50      0       0       4        0.0%
BITSFR3              0      0       0       4        0.0%
SFR3                 0      0       0       4        0.0%
BANK0               50      0       1       5        1.3%
BITSFR2              0      0       0       5        0.0%
SFR2                 0      0       0       5        0.0%
BITBANK1            50      0       0       6        0.0%
BANK1               50      0       0       7        0.0%
BITBANK3            60      0       0       8        0.0%
BANK3               60      0       0       9        0.0%
BITBANK2            60      0       0      10        0.0%
BANK2               60      0       0      11        0.0%
DATA                 0      0       F      12        0.0%


Microchip Technology PIC Macro Assembler V1.45 build -152302408 
Symbol Table                                                                                   Tue Feb 23 08:01:34 2021

                      _t 0020                        pc 0002              __CFG_CP$OFF 0000  
                     fsr 0004              __CFG_LVP$ON 0000                      l253 0630  
                    _GIE 005F                      _RB0 0030                      _RB1 0031  
                    _RB2 0032                      _RB3 0033                      _RD0 0040  
                    _RB4 0034                      _RD1 0041                      _RB5 0035  
                    _RD2 0042                      _RB6 0036                      _RD3 0043  
                    _RB7 0037                      _RD4 0044                      _RD5 0045  
                    _RD6 0046                      _RD7 0047             __CFG_CPD$OFF 0000  
                    fsr0 0004             __CFG_IESO$ON 0000             __CFG_FOSC$HS 0000  
                   STR_1 05C2                     STR_2 05D7                     STR_3 05C2  
                   STR_4 05D7                     STR_5 05C2                     STR_6 05D7  
                   STR_7 05C2                     STR_8 05D7                     STR_9 05D7  
                   _BRGH 04C2                     _CREN 00C4                     _IOCB 0096  
                   _PEIE 005E                     _INTE 005C                     _RBIE 005B  
                   _RBIF 0058                     _RCIE 0465                     _RCIF 0065  
                   _SPEN 00C7                     _TRMT 04C1                     _TXEN 04C5  
                   _SYNC 04C4             __CFG_WRT$OFF 0000            __CFG_FCMEN$ON 0000  
                   _jdk1 0020                     _main 0613                     btemp 007E  
          __CFG_BOREN$ON 0000                     start 0012                    ?_jdk1 0070  
                  ?_main 0070                    STR_10 05C2                    STR_11 05D7  
                  STR_20 05C2                    STR_12 05C2                    STR_21 05D7  
                  STR_13 05D7                    STR_14 05C2                    STR_30 05D7  
                  STR_22 05D7                    STR_31 05D7                    STR_23 05D7  
                  STR_15 05D7                    STR_16 05C2                    STR_32 05D7  
                  STR_24 05D7                    _BRG16 0C3B                    STR_25 05C2  
                  STR_17 05C2                    STR_33 05D7            __CFG_WDTE$OFF 0000  
                  STR_18 05C2                    STR_26 05D7                    STR_27 05C2  
                  STR_19 05C2                    STR_28 05C2                    STR_29 05C2  
                  _ANSEL 0188                    i1l102 064C                    i1l200 0378  
                  i1l210 03AC                    i1l202 0359                    i1l212 03F4  
                  i1l204 03A2                    i1l141 00D1                    i1l230 04CF  
                  i1l222 0427                    i1l214 03D5                    i1l206 0383  
                  i1l134 0082                    i1l119 0038                    i1l232 04F5  
                  i1l216 041D                    i1l208 03CB                    i1l225 044B  
                  i1l234 051B                    i1l226 04A9                    i1l218 03FE  
                  i1l162 01BE                    i1l155 016F                    i1l244 0588  
                  i1l148 0120                    i1l238 0563                    i1l191 02FA  
                  i1l183 02A8                    i1l192 0324                    i1l176 025A  
                  i1l248 05B1                    i1l169 020C                    i1l194 0305  
                  i1l196 034E                    i1l198 032F                    _RCREG 001A  
                  _SPBRG 0099                    _TXREG 0019                    _etape 007A  
                  _phase 007C                    pclath 000A                    status 0003  
                  wtemp0 007E           __CFG_MCLRE$OFF 0000          __initialization 0015  
           __end_of_jdk1 05BC             __end_of_main 0631                   ??_jdk1 0073  
                 ??_main 0000                   _ANSELH 0189                   i1l1304 007E  
                 i1l1322 00B9                   i1l1244 05ED                   i1l1500 02F5  
                 i1l1246 0608                   i1l1422 01FF                   i1l1350 0112  
                 i1l1326 00C3                   i1l1270 0034                   i1l1280 0052  
                 i1l1602 0488                   i1l1442 0243                   i1l1418 01F5  
                 i1l1370 0157                   i1l1346 0108                   i1l1274 0042  
                 i1l1292 0066                   i1l1284 0058                   i1l1470 029B  
                 i1l1446 024D                   i1l1374 0161                   u200_27 01D2  
                 i1l1288 005E                   i1l1490 02DF                   i1l1466 0291  
                 i1l1394 01A6                   i1l1298 0072                   i1l1654 0540  
                 i1l1582 0445                   i1l1494 02E9                   i1l1398 01B0  
                 u201_27 01E6                   i1l1682 05AC                   u210_27 036D  
                 u202_27 0220                   u211_27 0397                   u203_27 0234  
                 u220_27 04EA                   u212_27 03C0                   u204_27 026E  
                 u221_27 0510                   u213_27 03E9                   u205_27 0282  
                 u222_27 0535                   u214_27 0412                   u206_27 02BC  
                 u223_27 0558                   u215_27 043B                   u207_27 02D0  
                 u224_27 057D                   u216_27 0466                   u208_27 0319  
                 u225_27 05A2                   u217_27 047A                   u209_27 0343  
                 u218_27 049A                   u219_27 04C4                   u192_27 0096  
                 u193_27 00AA                   u194_27 00E5                   u195_27 00F9  
                 u196_27 0134                   u197_27 0148                   u198_27 0183  
                 u199_27 0197                   _TRISD0 0440                   _TRISD1 0441  
                 _TRISD2 0442                   _TRISD3 0443                   _TRISD4 0444  
                 _TRISD5 0445                   _TRISD6 0446                   _TRISD7 0447  
         __CFG_PWRTE$OFF 0000             ?_uart_txChar 0070                   saved_w 007E  
__end_of__initialization 001C           __pcstackCOMMON 0070               __pbssBANK0 0020  
             __pmaintext 0613               __pintentry 0004       __size_of_uart_unit 001A  
             __stringtab 05BC                  __ptext1 0631                  __ptext2 0020  
                __ptext3 05EC                  __ptext4 064B     __size_of_uart_txChar 000A  
   end_of_initialization 001C        __end_of_uart_unit 064B               _uart_txStr 05EC  
    start_initialization 0015              ?_uart_txStr 0070              __pbssCOMMON 007A  
              ___latbits 0002            __pcstackBANK0 0000                __pstrings 05BC  
      interrupt_function 0004      __size_of_uart_txStr 0027                _uart_unit 0631  
            __stringbase 05C1            ??_uart_txChar 0070               ?_uart_unit 0070  
     __end_of__stringtab 05C2        __CFG_BOR4V$BOR40V 0000      __end_of_uart_txChar 0655  
          __size_of_jdk1 059C            __size_of_main 001E             ??_uart_txStr 0071  
               intlevel1 0000       __end_of_uart_txStr 0613                stringcode 05BC  
            ??_uart_unit 0000            uart_txChar@ch 0070              _uart_txChar 064B  
               stringdir 05BC                 stringtab 05BC            uart_txStr@str 0072  
